(iCommon
GlobalState
p0
(dp1
S'do_snacks'
p2
I00
sS'all_recipes'
p3
(lp4
(iRecipe
Recipe
p5
(dp6
S'num_servings'
p7
S'4'
p8
sS'school_friendly'
p9
I00
sS'who_cooks'
p10
S'Jason'
p11
sS'name'
p12
S'Pesto'
p13
sS'ingredients'
p14
(lp15
(iIngredients
Ingredient
p16
(dp17
g12
S'Basil'
p18
sS'perishable'
p19
I00
sS'meat_type'
p20
S''
p21
sS'family_pack'
p22
I00
sS'location'
p23
S'Produce:Middle'
p24
sS'seasons'
p25
S'uf'
p26
sS'store_quantity'
p27
I1
sS'staple'
p28
I00
sS'unit'
p29
S'gallon'
p30
sS'quantity'
p31
I1
sba(iIngredients
Ingredient
p32
(dp33
g12
S'Olive Oil'
p34
sg19
I00
sg20
g21
sg22
I00
sg23
S'Baking'
p35
sg25
S'sufw'
p36
sg27
I1
sg28
I01
sg29
S'cup'
p37
sg31
I1
sba(iIngredients
Ingredient
p38
(dp39
g12
S'Parmesan Reggiano'
p40
sg19
I00
sg20
g21
sg22
I00
sg23
S'Cheese'
p41
sg25
g36
sg27
I1
sg28
I00
sg29
S'cup'
p42
sg31
I1
sba(iIngredients
Ingredient
p43
(dp44
g12
S'Walnuts'
p45
sg19
I00
sg20
g21
sg22
I00
sg23
S'WholeNuts'
p46
sg25
S'sufw'
p47
sg27
I1
sg28
I00
sg29
S'cup'
p48
sg31
I1
sba(iIngredients
Ingredient
p49
(dp50
g12
S'Garlic'
p51
sg19
I00
sg20
g21
sg22
I00
sg23
S'Produce:Back'
p52
sg25
g36
sg27
I1
sg28
I00
sg29
S'unit'
p53
sg31
I1
sba(iIngredients
Ingredient
p54
(dp55
g12
S'Salt'
p56
sg19
I00
sg20
g21
sg22
I00
sg23
S'Baking'
p57
sg25
S'sufw'
p58
sg27
I1
sg28
I01
sg29
S'tbs'
p59
sg31
I1
sba(iIngredients
Ingredient
p60
(dp61
g12
S'GF Rice Pasta'
p62
sg19
I00
sg20
g21
sg22
I00
sg23
S'GF'
p63
sg25
S'sufw'
p64
sg27
I1
sg28
I00
sg29
S'box'
p65
sg31
I1
sba(iIngredients
Ingredient
p66
(dp67
g12
S'Pasta'
p68
sg19
I00
sg20
g21
sg22
I00
sg23
S'Pasta'
p69
sg25
g64
sg27
I1
sg28
I00
sg29
S'box'
p70
sg31
I1
sba(iIngredients
Ingredient
p71
(dp72
g12
S'Parmesan'
p73
sg19
I00
sg20
g21
sg22
I00
sg23
S'Back:ButterAndCheese'
p74
sg25
g36
sg27
I1
sg28
I01
sg29
S'cup'
p75
sg31
I1
sbasS'kid_friendly'
p76
I01
sS'restrictions'
p77
(lp78
(iCommon
RestrictionProfile
p79
(dp80
g77
(lp81
sS'banned_ingredients'
p82
(lp83
sg12
S'Nuts'
p84
sS'banned_recipes'
p85
(lp86
sba(iCommon
RestrictionProfile
p87
(dp88
g77
g81
sg82
g83
sg12
S'Dairy'
p89
sg85
g86
sbasS'directions'
p90
(lp91
S'Clean basil'
p92
aS'Combine ingredients in food processor and pulse'
p93
aS'Cook pasta'
p94
asS'last_cooked'
p95
cdatetime
date
p96
(S'\x07\xe2\x07\x17'
p97
tp98
Rp99
sS'stars'
p100
I10
sS'time_to_cook'
p101
S'40'
p102
sS'cuisine_type'
p103
S'Italian'
p104
sg20
S'vegetarian'
p105
sS'history'
p106
(lp107
sba(iRecipe
Recipe
p108
(dp109
g7
I3
sg9
I01
sg10
S'Emily'
p110
sg12
S'Steak'
p111
sg14
(lp112
(iIngredients
Ingredient
p113
(dp114
g12
S'Sirloin Steak'
p115
sg19
I00
sg20
S'beef'
p116
sg22
I00
sg23
S'Meat'
p117
sg25
S'sufw'
p118
sg27
I1
sg28
I00
sg29
S'unit'
p119
sg31
I1
sba(iIngredients
Ingredient
p120
(dp121
g12
S'Potatoes'
p122
sg19
I00
sg20
g21
sg22
I00
sg23
S'Produce:Back'
p123
sg25
S'sufw'
p124
sg27
I1
sg28
I00
sg29
S'cups'
p125
sg31
I3
sbag54
asg76
I01
sg77
(lp126
(iCommon
RestrictionProfile
p127
(dp128
g77
g81
sg82
g83
sg12
S'Meat'
p129
sg85
g86
sba(iCommon
RestrictionProfile
p130
(dp131
g77
g81
sg82
g83
sg12
S'Beef'
p132
sg85
g86
sbasg90
(lp133
sg95
g99
sg100
I4
sg101
I20
sg103
S'American'
p134
sg20
g116
sg106
(lp135
sba(iRecipe
Recipe
p136
(dp137
g7
I4
sg9
I01
sg10
S'Emily'
p138
sg12
S'Red Wine and Sausage Sauce'
p139
sg14
(lp140
(iIngredients
Ingredient
p141
(dp142
g12
S'San Marzano Tomatoes'
p143
sg19
I00
sg20
g21
sg22
I00
sg23
S'Tomato'
p144
sg25
S'sufw'
p145
sg27
I1
sg28
I00
sg29
S'cans'
p146
sg31
F3.0
sba(iIngredients
Ingredient
p147
(dp148
g12
g34
sg19
I00
sg20
g21
sg22
I00
sg23
g35
sg25
g36
sg27
I1
sg28
I01
sg29
S'cups'
p149
sg31
F0.25
sba(iIngredients
Ingredient
p150
(dp151
g12
g56
sg19
I00
sg20
g21
sg22
I00
sg23
g57
sg25
g58
sg27
I1
sg28
I01
sg29
S'to taste'
p152
sg31
F1.0
sba(iIngredients
Ingredient
p153
(dp154
g12
S'Red Wine'
p155
sg19
I00
sg20
g21
sg22
I00
sg23
S'Alcohol'
p156
sg25
g145
sg27
I1
sg28
I01
sg29
S'cups'
p157
sg31
F2.0
sba(iIngredients
Ingredient
p158
(dp159
g12
S'Ground Sausage'
p160
sg19
I00
sg20
S'pork'
p161
sg22
I00
sg23
S'Meat'
p162
sg25
g145
sg27
I1
sg28
I00
sg29
S'lbs'
p163
sg31
F2.0
sba(iIngredients
Ingredient
p164
(dp165
g12
g51
sg19
I00
sg20
g21
sg22
I00
sg23
g52
sg25
g36
sg27
I1
sg28
I00
sg29
S'cloves'
p166
sg31
F8.0
sba(iIngredients
Ingredient
p167
(dp168
g12
S'Red Pepper Flakes'
p169
sg19
I00
sg20
g21
sg22
I00
sg23
S'Baking'
p170
sg25
g145
sg27
I1
sg28
I01
sg29
S'to taste'
p171
sg31
F1.0
sba(iIngredients
Ingredient
p172
(dp173
g12
g18
sg19
I00
sg20
g21
sg22
I00
sg23
g24
sg25
g26
sg27
I1
sg28
I00
sg29
S'leaves'
p174
sg31
F20.0
sba(iIngredients
Ingredient
p175
(dp176
g12
S'Mushrooms:Baby Bella'
p177
sg19
I01
sg20
g21
sg22
I00
sg23
S'Produce:LeftSide'
p178
sg25
g145
sg27
I1
sg28
I00
sg29
S'large box'
p179
sg31
F1.0
sba(iIngredients
Ingredient
p180
(dp181
g12
S'Pasta Fettucini'
p182
sg19
I00
sg20
g21
sg22
I00
sg23
S'Pasta'
p183
sg25
g64
sg27
I1
sg28
I00
sg29
S'lbs'
p184
sg31
F2.0
sba(iIngredients
Ingredient
p185
(dp186
g12
S'GF Pasta'
p187
sg19
I00
sg20
g21
sg22
I00
sg23
S'GF'
p188
sg25
g145
sg27
I1
sg28
I01
sg29
S'lbs'
p189
sg31
F2.0
sbasg76
I01
sg77
(lp190
g127
asg90
(lp191
S'Squeeze out the tomatoes and put them in a pot'
p192
aS'Add half the olive oil to the pot'
p193
aS'Heat tomatoes, mashing with potato masher'
p194
aS'Add salt and red wine'
p195
aS'Put remaining oil, garlic (pressed), sausage, red pepper flakes, and mushrooms in separate pan'
p196
aS'Heat until cooked'
p197
aS'Cook pasta'
p198
aS'Mix sausage and tomato sauce after simmering'
p199
aS'Drizzle truffle oil and serve'
p200
asg95
Nsg100
I10
sg101
I90
sg103
S'Italian'
p201
sg20
g161
sg106
(lp202
sba(iRecipe
Recipe
p203
(dp204
g7
I5
sg9
I01
sg10
S'Emily'
p205
sg12
S'Fettuccine Alfredo'
p206
sg14
(lp207
(iIngredients
Ingredient
p208
(dp209
g12
S'Butter'
p210
sg19
I00
sg20
g21
sg22
I00
sg23
S'Back:ButterAndCheese'
p211
sg25
g145
sg27
I1
sg28
I01
sg29
S'sticks'
p212
sg31
F2.0
sba(iIngredients
Ingredient
p213
(dp214
g12
g51
sg19
I00
sg20
g21
sg22
I00
sg23
g52
sg25
g36
sg27
I1
sg28
I00
sg29
S'cloves'
p215
sg31
F8.0
sba(iIngredients
Ingredient
p216
(dp217
g12
S'Cream Cheese'
p218
sg19
I00
sg20
g21
sg22
I00
sg23
S'Back:ButterAndCheese'
p219
sg25
S'sufw'
p220
sg27
I1
sg28
I00
sg29
S'packs'
p221
sg31
F2.0
sba(iIngredients
Ingredient
p222
(dp223
g12
S'Milk'
p224
sg19
I00
sg20
g21
sg22
I00
sg23
S'MilkAndEggs'
p225
sg25
S'sufw'
p226
sg27
I1
sg28
I00
sg29
S'cups'
p227
sg31
F4.0
sba(iIngredients
Ingredient
p228
(dp229
g12
g40
sg19
I00
sg20
g21
sg22
I00
sg23
g41
sg25
g36
sg27
I1
sg28
I00
sg29
S'blocks'
p230
sg31
F2.0
sba(iIngredients
Ingredient
p231
(dp232
g12
S'Black Pepper'
p233
sg19
I00
sg20
g21
sg22
I00
sg23
S'Baking'
p234
sg25
g145
sg27
I1
sg28
I01
sg29
S'to taste'
p235
sg31
F1.0
sba(iIngredients
Ingredient
p236
(dp237
g12
g187
sg19
I00
sg20
g21
sg22
I00
sg23
g188
sg25
g145
sg27
I1
sg28
I01
sg29
S'lb'
p238
sg31
F2.0
sba(iIngredients
Ingredient
p239
(dp240
g12
S'Pasta Fettuccine'
p241
sg19
I00
sg20
g21
sg22
I00
sg23
S'Pasta'
p242
sg25
S'sufw'
p243
sg27
I1
sg28
I00
sg29
S'lb'
p244
sg31
F2.0
sbasg76
I01
sg77
(lp245
g87
a(iCommon
RestrictionProfile
p246
(dp247
g77
g81
sg82
g83
sg12
S'Fatty'
p248
sg85
g86
sbasg90
(lp249
S'Make Fettuccine\r'
p250
asg95
Nsg100
I8
sg101
I20
sg103
S'Italian'
p251
sg20
S'vegetarian'
p252
sg106
g202
sba(iRecipe
Recipe
p253
(dp254
g7
I4
sg9
I01
sg10
S'Emily'
p255
sg12
S'Spaghetti'
p256
sg14
(lp257
(iIngredients
Ingredient
p258
(dp259
g12
S'Ground Beef'
p260
sg19
I01
sg20
S'beef'
p261
sg22
I01
sg23
S'Meat'
p262
sg25
g145
sg27
I1
sg28
I00
sg29
S'lb'
p263
sg31
F1.0
sba(iIngredients
Ingredient
p264
(dp265
g12
S'Red Onions'
p266
sg19
I00
sg20
g21
sg22
I00
sg23
S'Produce:Back'
p267
sg25
S'sufw'
p268
sg27
I1
sg28
I00
sg29
S'unit'
p269
sg31
F1.0
sba(iIngredients
Ingredient
p270
(dp271
g12
S'Carrots'
p272
sg19
I00
sg20
g21
sg22
I00
sg23
S'Produce:RightSide'
p273
sg25
S'sufw'
p274
sg27
I1
sg28
I00
sg29
S'bag'
p275
sg31
F1.0
sba(iIngredients
Ingredient
p276
(dp277
g12
S'Mushrooms'
p278
sg19
I00
sg20
g21
sg22
I00
sg23
S'Produce:LeftSide'
p279
sg25
S'sufw'
p280
sg27
I1
sg28
I00
sg29
S'small box'
p281
sg31
F1.0
sba(iIngredients
Ingredient
p282
(dp283
g12
S'Ragu'
p284
sg19
I00
sg20
g21
sg22
I00
sg23
S'Tomato'
p285
sg25
S'sufw'
p286
sg27
I1
sg28
I00
sg29
S'jar'
p287
sg31
F1.0
sba(iIngredients
Ingredient
p288
(dp289
g12
S'Tomato Sauce'
p290
sg19
I00
sg20
g21
sg22
I00
sg23
S'Tomato'
p291
sg25
S'sufw'
p292
sg27
I1
sg28
I00
sg29
S'cans'
p293
sg31
F2.0
sba(iIngredients
Ingredient
p294
(dp295
g12
S'Pasta Spaghetti'
p296
sg19
I00
sg20
g21
sg22
I00
sg23
S'Pasta'
p297
sg25
S'sufw'
p298
sg27
I1
sg28
I00
sg29
S'lbs'
p299
sg31
F2.0
sba(iIngredients
Ingredient
p300
(dp301
g12
g187
sg19
I00
sg20
g21
sg22
I00
sg23
g188
sg25
g145
sg27
I1
sg28
I01
sg29
S'lbs'
p302
sg31
F2.0
sbasg76
I01
sg77
(lp303
g127
ag130
asg90
(lp304
S'Make spaghetti\r'
p305
asg95
Nsg100
I7
sg101
I45
sg103
S'Italian'
p306
sg20
g261
sg106
(lp307
sba(iRecipe
Recipe
p308
(dp309
g7
I4
sg9
I01
sg10
S'Emily'
p310
sg12
S'Ragu'
p311
sg14
(lp312
(iIngredients
Ingredient
p313
(dp314
g12
g266
sg19
I00
sg20
g21
sg22
I00
sg23
g267
sg25
g268
sg27
I1
sg28
I00
sg29
S'unit'
p315
sg31
F1.0
sba(iIngredients
Ingredient
p316
(dp317
g12
g272
sg19
I00
sg20
g21
sg22
I00
sg23
g273
sg25
g274
sg27
I1
sg28
I00
sg29
S'units'
p318
sg31
F6.0
sba(iIngredients
Ingredient
p319
(dp320
g12
g210
sg19
I00
sg20
g21
sg22
I00
sg23
g211
sg25
g145
sg27
I1
sg28
I01
sg29
S'Tbs'
p321
sg31
F2.0
sba(iIngredients
Ingredient
p322
(dp323
g12
g260
sg19
I01
sg20
g261
sg22
I01
sg23
g262
sg25
g145
sg27
I1
sg28
I00
sg29
S'lb'
p324
sg31
F1.0
sba(iIngredients
Ingredient
p325
(dp326
g12
S'Red Wine'
p327
sg19
I00
sg20
g21
sg22
I00
sg23
S'Alcohol'
p328
sg25
S'sufw'
p329
sg27
I1
sg28
I01
sg29
S'cups'
p330
sg31
F1.5
sba(iIngredients
Ingredient
p331
(dp332
g12
S'Diced Tomatoes'
p333
sg19
I00
sg20
g21
sg22
I00
sg23
S'Tomato'
p334
sg25
S'sufw'
p335
sg27
I1
sg28
I00
sg29
S'large cans'
p336
sg31
F2.0
sba(iIngredients
Ingredient
p337
(dp338
g12
g40
sg19
I00
sg20
g21
sg22
I00
sg23
g41
sg25
g36
sg27
I1
sg28
I00
sg29
S'block'
p339
sg31
F1.0
sba(iIngredients
Ingredient
p340
(dp341
g12
g56
sg19
I00
sg20
g21
sg22
I00
sg23
g57
sg25
g58
sg27
I1
sg28
I01
sg29
S'to taste'
p342
sg31
F1.0
sba(iIngredients
Ingredient
p343
(dp344
g12
g233
sg19
I00
sg20
g21
sg22
I00
sg23
g234
sg25
g145
sg27
I1
sg28
I01
sg29
S'to taste'
p345
sg31
F1.0
sba(iIngredients
Ingredient
p346
(dp347
g12
S'Thyme'
p348
sg19
I00
sg20
g21
sg22
I00
sg23
S'Baking'
p349
sg25
S'sufw'
p350
sg27
I1
sg28
I01
sg29
S'to taste'
p351
sg31
F1.0
sba(iIngredients
Ingredient
p352
(dp353
g12
S'Pasta Orichiette'
p354
sg19
I00
sg20
g21
sg22
I00
sg23
S'Pasta'
p355
sg25
S'sufw'
p356
sg27
I1
sg28
I00
sg29
S'lb'
p357
sg31
F1.0
sba(iIngredients
Ingredient
p358
(dp359
g12
g187
sg19
I00
sg20
g21
sg22
I00
sg23
g188
sg25
g145
sg27
I1
sg28
I01
sg29
S'lb'
p360
sg31
F1.0
sbasg76
I01
sg77
(lp361
g127
ag130
ag87
asg90
(lp362
S'Make Ragu\r'
p363
asg95
Nsg100
I8
sg101
I120
sg103
S'Italian'
p364
sg20
g261
sg106
(lp365
sba(iRecipe
Recipe
p366
(dp367
g7
I4
sg9
I01
sg10
S'Emily'
p368
sg12
S'Goulash'
p369
sg14
(lp370
(iIngredients
Ingredient
p371
(dp372
g12
g266
sg19
I00
sg20
g21
sg22
I00
sg23
g267
sg25
g268
sg27
I1
sg28
I00
sg29
S'unit'
p373
sg31
F1.0
sba(iIngredients
Ingredient
p374
(dp375
g12
S'Green Peppers'
p376
sg19
I00
sg20
g21
sg22
I00
sg23
S'Produce:LeftSide'
p377
sg25
S'sufw'
p378
sg27
I1
sg28
I00
sg29
S'unit'
p379
sg31
F1.0
sba(iIngredients
Ingredient
p380
(dp381
g12
g260
sg19
I01
sg20
g261
sg22
I01
sg23
g262
sg25
g145
sg27
I1
sg28
I00
sg29
S'lb'
p382
sg31
F2.0
sba(iIngredients
Ingredient
p383
(dp384
g12
g333
sg19
I00
sg20
g21
sg22
I00
sg23
g334
sg25
g335
sg27
I1
sg28
I00
sg29
S'large cans'
p385
sg31
F2.0
sba(iIngredients
Ingredient
p386
(dp387
g12
S'Pasta Shell'
p388
sg19
I00
sg20
g21
sg22
I00
sg23
S'Pasta'
p389
sg25
S'sufw'
p390
sg27
I1
sg28
I00
sg29
S'lb'
p391
sg31
F2.0
sba(iIngredients
Ingredient
p392
(dp393
g12
g187
sg19
I00
sg20
g21
sg22
I00
sg23
g188
sg25
g145
sg27
I1
sg28
I01
sg29
S'lb'
p394
sg31
F2.0
sba(iIngredients
Ingredient
p395
(dp396
g12
S'Cayenne Pepper'
p397
sg19
I00
sg20
g21
sg22
I00
sg23
S'Baking'
p398
sg25
S'sufw'
p399
sg27
I1
sg28
I01
sg29
S'to taste'
p400
sg31
F1.0
sba(iIngredients
Ingredient
p401
(dp402
g12
g233
sg19
I00
sg20
g21
sg22
I00
sg23
g234
sg25
g145
sg27
I1
sg28
I01
sg29
S'to taste'
p403
sg31
F1.0
sba(iIngredients
Ingredient
p404
(dp405
g12
g51
sg19
I00
sg20
g21
sg22
I00
sg23
g52
sg25
g36
sg27
I1
sg28
I00
sg29
S'cloves'
p406
sg31
F4.0
sba(iIngredients
Ingredient
p407
(dp408
g12
S'Onion Powder'
p409
sg19
I00
sg20
g21
sg22
I00
sg23
S'Baking'
p410
sg25
S'sufw'
p411
sg27
I1
sg28
I01
sg29
S'to taste'
p412
sg31
F1.0
sba(iIngredients
Ingredient
p413
(dp414
g12
g56
sg19
I00
sg20
g21
sg22
I00
sg23
g57
sg25
g58
sg27
I1
sg28
I01
sg29
S'to taste'
p415
sg31
F1.0
sbasg76
I01
sg77
(lp416
g127
ag130
a(iCommon
RestrictionProfile
p417
(dp418
g77
(lp419
sg82
(lp420
sg12
S'Spicy'
p421
sg85
(lp422
sbasg90
(lp423
S'Make Goulash\r'
p424
asg95
Nsg100
I2
sg101
I40
sg103
S'Cajun'
p425
sg20
g261
sg106
g365
sba(iRecipe
Recipe
p426
(dp427
g7
I3
sg9
I01
sg10
S'Emily'
p428
sg12
S'Gnocchi with Asparagus'
p429
sg14
(lp430
(iIngredients
Ingredient
p431
(dp432
g12
S'Gnocchi'
p433
sg19
I00
sg20
g21
sg22
I00
sg23
S'Pasta'
p434
sg25
S'sufw'
p435
sg27
I1
sg28
I00
sg29
S'lb'
p436
sg31
F1.0
sba(iIngredients
Ingredient
p437
(dp438
g12
S'GF Gnocchi'
p439
sg19
I00
sg20
g21
sg22
I00
sg23
S'GF'
p440
sg25
S'sufw'
p441
sg27
I1
sg28
I00
sg29
S'lb'
p442
sg31
F1.0
sba(iIngredients
Ingredient
p443
(dp444
g12
g278
sg19
I00
sg20
g21
sg22
I00
sg23
g279
sg25
g280
sg27
I1
sg28
I00
sg29
S'large box'
p445
sg31
F1.0
sba(iIngredients
Ingredient
p446
(dp447
g12
S'Asparagus'
p448
sg19
I00
sg20
g21
sg22
I00
sg23
S'Produce:Front'
p449
sg25
S'sufw'
p450
sg27
I1
sg28
I00
sg29
S'bunches'
p451
sg31
F2.0
sba(iIngredients
Ingredient
p452
(dp453
g12
g40
sg19
I00
sg20
g21
sg22
I00
sg23
g41
sg25
g36
sg27
I1
sg28
I00
sg29
S'block'
p454
sg31
F1.0
sba(iIngredients
Ingredient
p455
(dp456
g12
S'Olive Oil'
p457
sg19
I00
sg20
g21
sg22
I00
sg23
S'Baking'
p458
sg25
S'sufw'
p459
sg27
I1
sg28
I01
sg29
S'to taste'
p460
sg31
F1.0
sbasg76
I01
sg77
(lp461
g87
asg90
(lp462
S'Make Gnocchi\r'
p463
asg95
Nsg100
I6
sg101
I25
sg103
S'Italian'
p464
sg20
g252
sg106
g365
sba(iRecipe
Recipe
p465
(dp466
g7
I4
sg9
I01
sg10
S'Emily'
p467
sg12
S'Orichiette with Sausage'
p468
sg14
(lp469
(iIngredients
Ingredient
p470
(dp471
g12
S'Broccoli Rabe'
p472
sg19
I01
sg20
g21
sg22
I00
sg23
S'Produce:Herbs'
p473
sg25
S'sufw'
p474
sg27
I1
sg28
I00
sg29
S'bunches'
p475
sg31
F2.0
sba(iIngredients
Ingredient
p476
(dp477
g12
g160
sg19
I00
sg20
g161
sg22
I00
sg23
g162
sg25
g145
sg27
I1
sg28
I00
sg29
S'lb'
p478
sg31
F2.0
sba(iIngredients
Ingredient
p479
(dp480
g12
g40
sg19
I00
sg20
g21
sg22
I00
sg23
g41
sg25
g36
sg27
I1
sg28
I00
sg29
S'blocks'
p481
sg31
F2.0
sba(iIngredients
Ingredient
p482
(dp483
g12
g169
sg19
I00
sg20
g21
sg22
I00
sg23
g170
sg25
g145
sg27
I1
sg28
I01
sg29
S'to taste'
p484
sg31
F1.0
sba(iIngredients
Ingredient
p485
(dp486
g12
g233
sg19
I00
sg20
g21
sg22
I00
sg23
g234
sg25
g145
sg27
I1
sg28
I01
sg29
S'to taste'
p487
sg31
F1.0
sba(iIngredients
Ingredient
p488
(dp489
g12
g56
sg19
I00
sg20
g21
sg22
I00
sg23
g57
sg25
g58
sg27
I1
sg28
I01
sg29
S'to taste'
p490
sg31
F1.0
sba(iIngredients
Ingredient
p491
(dp492
g12
g457
sg19
I00
sg20
g21
sg22
I00
sg23
g458
sg25
g459
sg27
I1
sg28
I01
sg29
S'to taste'
p493
sg31
F1.0
sba(iIngredients
Ingredient
p494
(dp495
g12
g354
sg19
I00
sg20
g21
sg22
I00
sg23
g355
sg25
g356
sg27
I1
sg28
I00
sg29
S'lb'
p496
sg31
F1.0
sba(iIngredients
Ingredient
p497
(dp498
g12
g187
sg19
I00
sg20
g21
sg22
I00
sg23
g188
sg25
g145
sg27
I1
sg28
I01
sg29
S'lb'
p499
sg31
F1.0
sbasg76
I01
sg77
(lp500
g127
asg90
(lp501
S'Make Pasta\r'
p502
asg95
Nsg100
I9
sg101
I30
sg103
S'Italian'
p503
sg20
g161
sg106
g365
sba(iRecipe
Recipe
p504
(dp505
g7
I4
sg9
I01
sg10
S'Emily'
p506
sg12
S'Dirty Rice'
p507
sg14
(lp508
(iIngredients
Ingredient
p509
(dp510
g12
S'Dirty Rice Mix'
p511
sg19
I00
sg20
g21
sg22
I00
sg23
S'Rice'
p512
sg25
S'sufw'
p513
sg27
I1
sg28
I00
sg29
S'boxes'
p514
sg31
F2.0
sba(iIngredients
Ingredient
p515
(dp516
g12
g160
sg19
I00
sg20
g161
sg22
I00
sg23
g162
sg25
g145
sg27
I1
sg28
I00
sg29
S'lbs'
p517
sg31
F2.0
sba(iIngredients
Ingredient
p518
(dp519
g12
S'Onions'
p520
sg19
I00
sg20
g21
sg22
I00
sg23
S'Produce:Back'
p521
sg25
S'sufw'
p522
sg27
I1
sg28
I00
sg29
S'units'
p523
sg31
F2.0
sba(iIngredients
Ingredient
p524
(dp525
g12
S'Celery'
p526
sg19
I00
sg20
g21
sg22
I00
sg23
S'Produce:RightSide'
p527
sg25
S'sufw'
p528
sg27
I1
sg28
I00
sg29
S'stalks'
p529
sg31
F4.0
sba(iIngredients
Ingredient
p530
(dp531
g12
S'Cajun Seasoning'
p532
sg19
I00
sg20
g21
sg22
I00
sg23
S'Baking'
p533
sg25
S'sufw'
p534
sg27
I1
sg28
I01
sg29
S'to taste'
p535
sg31
F1.0
sba(iIngredients
Ingredient
p536
(dp537
g12
S'Rice'
p538
sg19
I00
sg20
g21
sg22
I00
sg23
S'International:Indian'
p539
sg25
S'sufw'
p540
sg27
I1
sg28
I01
sg29
S'cup'
p541
sg31
F1.0
sba(iIngredients
Ingredient
p542
(dp543
g12
g210
sg19
I00
sg20
g21
sg22
I00
sg23
g211
sg25
g145
sg27
I1
sg28
I01
sg29
S'Tbs'
p544
sg31
F2.0
sbasg76
I01
sg77
(lp545
g127
ag246
ag417
asg90
(lp546
S'Make dirty rice\r'
p547
asg95
Nsg100
I8
sg101
I40
sg103
S'Cajun'
p548
sg20
g161
sg106
(lp549
sba(iRecipe
Recipe
p550
(dp551
g7
I5
sg9
I01
sg10
S'Emily'
p552
sg12
S'Chili'
p553
sg14
(lp554
(iIngredients
Ingredient
p555
(dp556
g12
g260
sg19
I01
sg20
g261
sg22
I01
sg23
g262
sg25
g145
sg27
I1
sg28
I00
sg29
S'lbs'
p557
sg31
F4.0
sba(iIngredients
Ingredient
p558
(dp559
g12
g520
sg19
I00
sg20
g21
sg22
I00
sg23
g521
sg25
g522
sg27
I1
sg28
I00
sg29
S'units'
p560
sg31
F2.0
sba(iIngredients
Ingredient
p561
(dp562
g12
S'Dark Red Kidney Beans'
p563
sg19
I00
sg20
g21
sg22
I00
sg23
S'International:Canned'
p564
sg25
S'sufw'
p565
sg27
I1
sg28
I00
sg29
S'14 oz cans'
p566
sg31
F5.0
sba(iIngredients
Ingredient
p567
(dp568
g12
S'Red Beans'
p569
sg19
I00
sg20
g21
sg22
I00
sg23
S'International:Canned'
p570
sg25
S'sufw'
p571
sg27
I1
sg28
I00
sg29
S'14 oz cans'
p572
sg31
F5.0
sba(iIngredients
Ingredient
p573
(dp574
g12
S'Tomato Juice'
p575
sg19
I00
sg20
g21
sg22
I00
sg23
S'Juice'
p576
sg25
S'sufw'
p577
sg27
I1
sg28
I00
sg29
S'46 oz bottles'
p578
sg31
F2.0
sba(iIngredients
Ingredient
p579
(dp580
g12
g333
sg19
I00
sg20
g21
sg22
I00
sg23
g334
sg25
g335
sg27
I1
sg28
I00
sg29
S'cans'
p581
sg31
F4.0
sba(iIngredients
Ingredient
p582
(dp583
g12
S'Rotel'
p584
sg19
I00
sg20
g21
sg22
I00
sg23
S'International:Mexican'
p585
sg25
S'sufw'
p586
sg27
I1
sg28
I00
sg29
S'cans'
p587
sg31
F2.0
sba(iIngredients
Ingredient
p588
(dp589
g12
S'Red Peppers'
p590
sg19
I00
sg20
g21
sg22
I00
sg23
S'Produce:LeftSide'
p591
sg25
S'sufw'
p592
sg27
I1
sg28
I00
sg29
S'units'
p593
sg31
F2.0
sba(iIngredients
Ingredient
p594
(dp595
g12
S'Red Cherry Peppers'
p596
sg19
I00
sg20
g21
sg22
I00
sg23
S'Produce:LeftSide'
p597
sg25
S'sufw'
p598
sg27
I1
sg28
I00
sg29
S'handfuls'
p599
sg31
F3.0
sba(iIngredients
Ingredient
p600
(dp601
g12
S'Thai Chili Peppers'
p602
sg19
I00
sg20
g21
sg22
I00
sg23
S'Produce:LeftSide'
p603
sg25
S'sufw'
p604
sg27
I1
sg28
I00
sg29
S'units'
p605
sg31
F6.0
sba(iIngredients
Ingredient
p606
(dp607
g12
S'Chili Powder'
p608
sg19
I00
sg20
g21
sg22
I00
sg23
S'Baking'
p609
sg25
S'sufw'
p610
sg27
I1
sg28
I01
sg29
S'to taste'
p611
sg31
F1.0
sba(iIngredients
Ingredient
p612
(dp613
g12
S'Cumin'
p614
sg19
I00
sg20
g21
sg22
I00
sg23
S'Baking'
p615
sg25
S'sufw'
p616
sg27
I1
sg28
I01
sg29
S'to taste'
p617
sg31
F1.0
sba(iIngredients
Ingredient
p618
(dp619
g12
g51
sg19
I00
sg20
g21
sg22
I00
sg23
g52
sg25
g36
sg27
I1
sg28
I00
sg29
S'heads'
p620
sg31
F2.0
sba(iIngredients
Ingredient
p621
(dp622
g12
S'Dried Basil'
p623
sg19
I00
sg20
g21
sg22
I00
sg23
S'Baking'
p624
sg25
S'sufw'
p625
sg27
I1
sg28
I01
sg29
S'to taste'
p626
sg31
F1.0
sba(iIngredients
Ingredient
p627
(dp628
g12
g56
sg19
I00
sg20
g21
sg22
I00
sg23
g57
sg25
g58
sg27
I1
sg28
I01
sg29
S'to taste'
p629
sg31
F1.0
sba(iIngredients
Ingredient
p630
(dp631
g12
g233
sg19
I00
sg20
g21
sg22
I00
sg23
g234
sg25
g145
sg27
I1
sg28
I01
sg29
S'to taste'
p632
sg31
F1.0
sba(iIngredients
Ingredient
p633
(dp634
g12
g409
sg19
I00
sg20
g21
sg22
I00
sg23
g410
sg25
g411
sg27
I1
sg28
I01
sg29
S'to taste'
p635
sg31
F1.0
sbasg76
I01
sg77
(lp636
g127
ag130
ag417
asg90
(lp637
S'Make Chili\r'
p638
asg95
Nsg100
I8
sg101
I120
sg103
S'Cajun'
p639
sg20
g261
sg106
g549
sba(iRecipe
Recipe
p640
(dp641
g7
I1
sg9
I00
sg10
S'Emily'
p642
sg12
S'Corn on the Cob'
p643
sg14
(lp644
(iIngredients
Ingredient
p645
(dp646
g12
S'Corn on the Cob'
p647
sg19
I00
sg20
g21
sg22
I00
sg23
S'Produce:Middle'
p648
sg25
S'uf'
p649
sg27
I1
sg28
I00
sg29
S'husks'
p650
sg31
F3.0
sbasg76
I01
sg77
(lp651
sg90
(lp652
S'Peel and boil 10 minutes\r'
p653
asg95
Nsg100
I2
sg101
I15
sg103
S'Snack'
p654
sg20
g252
sg106
g549
sba(iRecipe
Recipe
p655
(dp656
g7
I4
sg9
I01
sg10
S'Emily'
p657
sg12
S'Enchiladas'
p658
sg14
(lp659
(iIngredients
Ingredient
p660
(dp661
g12
g266
sg19
I00
sg20
g21
sg22
I00
sg23
g267
sg25
g268
sg27
I1
sg28
I00
sg29
S'unit'
p662
sg31
F1.0
sba(iIngredients
Ingredient
p663
(dp664
g12
g260
sg19
I01
sg20
g261
sg22
I01
sg23
g262
sg25
g145
sg27
I1
sg28
I00
sg29
S'lb'
p665
sg31
F4.0
sba(iIngredients
Ingredient
p666
(dp667
g12
S'Mexican Cheese'
p668
sg19
I00
sg20
g21
sg22
I00
sg23
S'Back:ButterAndCheese'
p669
sg25
S'sufw'
p670
sg27
I1
sg28
I01
sg29
S'bags'
p671
sg31
F3.0
sba(iIngredients
Ingredient
p672
(dp673
g12
S'Burrito Tortillas'
p674
sg19
I00
sg20
g21
sg22
I00
sg23
S'International:Mexican'
p675
sg25
S'sufw'
p676
sg27
I1
sg28
I00
sg29
S'bags'
p677
sg31
F2.0
sba(iIngredients
Ingredient
p678
(dp679
g12
S'Old El Paso Enchilada Sauce'
p680
sg19
I00
sg20
g21
sg22
I00
sg23
S'International:Mexican'
p681
sg25
S'sufw'
p682
sg27
I1
sg28
I00
sg29
S'cans'
p683
sg31
F3.0
sba(iIngredients
Ingredient
p684
(dp685
g12
S'Tomato Soup'
p686
sg19
I00
sg20
g21
sg22
I00
sg23
S'Soup'
p687
sg25
S'sufw'
p688
sg27
I1
sg28
I00
sg29
S'cans'
p689
sg31
F2.0
sba(iIngredients
Ingredient
p690
(dp691
g12
S'Cream of Mushroom Soup'
p692
sg19
I00
sg20
g21
sg22
I00
sg23
S'Soup'
p693
sg25
S'sufw'
p694
sg27
I1
sg28
I00
sg29
S'can'
p695
sg31
F1.0
sba(iIngredients
Ingredient
p696
(dp697
g12
g169
sg19
I00
sg20
g21
sg22
I00
sg23
g170
sg25
g145
sg27
I1
sg28
I01
sg29
S'to taste'
p698
sg31
F1.0
sba(iIngredients
Ingredient
p699
(dp700
g12
g56
sg19
I00
sg20
g21
sg22
I00
sg23
g57
sg25
g58
sg27
I1
sg28
I01
sg29
S'to taste'
p701
sg31
F1.0
sba(iIngredients
Ingredient
p702
(dp703
g12
g233
sg19
I00
sg20
g21
sg22
I00
sg23
g234
sg25
g145
sg27
I1
sg28
I01
sg29
S'to taste'
p704
sg31
F1.0
sba(iIngredients
Ingredient
p705
(dp706
g12
g51
sg19
I00
sg20
g21
sg22
I00
sg23
g52
sg25
g36
sg27
I1
sg28
I00
sg29
S'cloves'
p707
sg31
F8.0
sba(iIngredients
Ingredient
p708
(dp709
g12
g409
sg19
I00
sg20
g21
sg22
I00
sg23
g410
sg25
g411
sg27
I1
sg28
I01
sg29
S'to taste'
p710
sg31
F1.0
sba(iIngredients
Ingredient
p711
(dp712
g12
g608
sg19
I00
sg20
g21
sg22
I00
sg23
g609
sg25
g610
sg27
I1
sg28
I01
sg29
S'to taste'
p713
sg31
F1.0
sbasg76
I01
sg77
(lp714
g127
ag130
ag87
ag246
asg90
(lp715
S'Make enchiladas\r'
p716
asg95
Nsg100
I5
sg101
I60
sg103
S'Mexican'
p717
sg20
g261
sg106
(lp718
sba(iRecipe
Recipe
p719
(dp720
g7
I4
sg9
I00
sg10
S'Emily'
p721
sg12
S'Tacos'
p722
sg14
(lp723
(iIngredients
Ingredient
p724
(dp725
g12
g266
sg19
I00
sg20
g21
sg22
I00
sg23
g267
sg25
g268
sg27
I1
sg28
I00
sg29
S'unit'
p726
sg31
F1.0
sba(iIngredients
Ingredient
p727
(dp728
g12
g590
sg19
I00
sg20
g21
sg22
I00
sg23
g591
sg25
g592
sg27
I1
sg28
I00
sg29
S'unit'
p729
sg31
F1.0
sba(iIngredients
Ingredient
p730
(dp731
g12
g260
sg19
I01
sg20
g261
sg22
I01
sg23
g262
sg25
g145
sg27
I1
sg28
I00
sg29
S'lb'
p732
sg31
F2.0
sba(iIngredients
Ingredient
p733
(dp734
g12
g668
sg19
I00
sg20
g21
sg22
I00
sg23
g669
sg25
g670
sg27
I1
sg28
I01
sg29
S'bag'
p735
sg31
F1.0
sba(iIngredients
Ingredient
p736
(dp737
g12
S'Sour Cream'
p738
sg19
I00
sg20
g21
sg22
I00
sg23
S'Back:ButterAndCheese'
p739
sg25
S'sufw'
p740
sg27
I1
sg28
I00
sg29
S'pint'
p741
sg31
F1.0
sba(iIngredients
Ingredient
p742
(dp743
g12
g614
sg19
I00
sg20
g21
sg22
I00
sg23
g615
sg25
g616
sg27
I1
sg28
I01
sg29
S'to taste'
p744
sg31
F1.0
sba(iIngredients
Ingredient
p745
(dp746
g12
g233
sg19
I00
sg20
g21
sg22
I00
sg23
g234
sg25
g145
sg27
I1
sg28
I01
sg29
S'to taste'
p747
sg31
F1.0
sba(iIngredients
Ingredient
p748
(dp749
g12
g51
sg19
I00
sg20
g21
sg22
I00
sg23
g52
sg25
g36
sg27
I1
sg28
I00
sg29
S'cloves'
p750
sg31
F5.0
sba(iIngredients
Ingredient
p751
(dp752
g12
g608
sg19
I00
sg20
g21
sg22
I00
sg23
g609
sg25
g610
sg27
I1
sg28
I01
sg29
S'to taste'
p753
sg31
F1.0
sba(iIngredients
Ingredient
p754
(dp755
g12
g409
sg19
I00
sg20
g21
sg22
I00
sg23
g410
sg25
g411
sg27
I1
sg28
I01
sg29
S'to taste'
p756
sg31
F1.0
sba(iIngredients
Ingredient
p757
(dp758
g12
g56
sg19
I00
sg20
g21
sg22
I00
sg23
g57
sg25
g58
sg27
I1
sg28
I01
sg29
S'to taste'
p759
sg31
F1.0
sba(iIngredients
Ingredient
p760
(dp761
g12
g674
sg19
I00
sg20
g21
sg22
I00
sg23
g675
sg25
g676
sg27
I1
sg28
I00
sg29
S'pack'
p762
sg31
F1.0
sba(iIngredients
Ingredient
p763
(dp764
g12
S'Taco Shells'
p765
sg19
I00
sg20
g21
sg22
I00
sg23
S'International:Mexican'
p766
sg25
S'sufw'
p767
sg27
I1
sg28
I00
sg29
S'box'
p768
sg31
F1.0
sbasg76
I01
sg77
(lp769
g127
ag130
ag87
asg90
(lp770
S'Make Tacos\r'
p771
asg95
Nsg100
I3
sg101
I25
sg103
S'Mexican'
p772
sg20
g261
sg106
g718
sba(iRecipe
Recipe
p773
(dp774
g7
I5
sg9
I00
sg10
S'Emily'
p775
sg12
S'Breakfast Tacos'
p776
sg14
(lp777
(iIngredients
Ingredient
p778
(dp779
g12
g266
sg19
I00
sg20
g21
sg22
I00
sg23
g267
sg25
g268
sg27
I1
sg28
I00
sg29
S'unit'
p780
sg31
F1.0
sba(iIngredients
Ingredient
p781
(dp782
g12
S'Red Potatoes'
p783
sg19
I00
sg20
g21
sg22
I00
sg23
S'Produce:Back'
p784
sg25
S'sufw'
p785
sg27
I1
sg28
I00
sg29
S'units'
p786
sg31
F2.0
sba(iIngredients
Ingredient
p787
(dp788
g12
g56
sg19
I00
sg20
g21
sg22
I00
sg23
g57
sg25
g58
sg27
I1
sg28
I01
sg29
S'to taste'
p789
sg31
F1.0
sba(iIngredients
Ingredient
p790
(dp791
g12
g233
sg19
I00
sg20
g21
sg22
I00
sg23
g234
sg25
g145
sg27
I1
sg28
I01
sg29
S'to taste'
p792
sg31
F1.0
sba(iIngredients
Ingredient
p793
(dp794
g12
g397
sg19
I00
sg20
g21
sg22
I00
sg23
g398
sg25
g399
sg27
I1
sg28
I01
sg29
S'to taste'
p795
sg31
F1.0
sba(iIngredients
Ingredient
p796
(dp797
g12
g160
sg19
I00
sg20
g161
sg22
I00
sg23
g162
sg25
g145
sg27
I1
sg28
I00
sg29
S'lbs'
p798
sg31
F2.0
sba(iIngredients
Ingredient
p799
(dp800
g12
S'Eggs'
p801
sg19
I00
sg20
S'Eggs'
p802
sg22
I00
sg23
S'MilkAndEggs'
p803
sg25
S'sufw'
p804
sg27
I1
sg28
I01
sg29
S'dozen'
p805
sg31
F2.0
sba(iIngredients
Ingredient
p806
(dp807
g12
g668
sg19
I00
sg20
g21
sg22
I00
sg23
g669
sg25
g670
sg27
I1
sg28
I01
sg29
S'bag'
p808
sg31
F1.0
sba(iIngredients
Ingredient
p809
(dp810
g12
g738
sg19
I00
sg20
g21
sg22
I00
sg23
g739
sg25
g740
sg27
I1
sg28
I00
sg29
S'small'
p811
sg31
F1.0
sba(iIngredients
Ingredient
p812
(dp813
g12
g674
sg19
I00
sg20
g21
sg22
I00
sg23
g675
sg25
g676
sg27
I1
sg28
I00
sg29
S'pack'
p814
sg31
F1.0
sbasg76
I01
sg77
(lp815
g87
ag127
ag246
asg90
(lp816
S'Make Tacos\r'
p817
asg95
Nsg100
I6
sg101
I35
sg103
S'Mexican'
p818
sg20
g161
sg106
g718
sba(iRecipe
Recipe
p819
(dp820
g7
I5
sg9
I01
sg10
S'Emily'
p821
sg12
S'Stroganoff'
p822
sg14
(lp823
(iIngredients
Ingredient
p824
(dp825
g12
g260
sg19
I01
sg20
g261
sg22
I01
sg23
g262
sg25
g145
sg27
I1
sg28
I00
sg29
S'lbs'
p826
sg31
F2.0
sba(iIngredients
Ingredient
p827
(dp828
g12
g266
sg19
I00
sg20
g21
sg22
I00
sg23
g267
sg25
g268
sg27
I1
sg28
I00
sg29
S'unit'
p829
sg31
F1.0
sba(iIngredients
Ingredient
p830
(dp831
g12
g56
sg19
I00
sg20
g21
sg22
I00
sg23
g57
sg25
g58
sg27
I1
sg28
I01
sg29
S'to taste'
p832
sg31
F1.0
sba(iIngredients
Ingredient
p833
(dp834
g12
g233
sg19
I00
sg20
g21
sg22
I00
sg23
g234
sg25
g145
sg27
I1
sg28
I01
sg29
S'to taste'
p835
sg31
F1.0
sba(iIngredients
Ingredient
p836
(dp837
g12
g51
sg19
I00
sg20
g21
sg22
I00
sg23
g52
sg25
g36
sg27
I1
sg28
I00
sg29
S'cloves'
p838
sg31
F8.0
sba(iIngredients
Ingredient
p839
(dp840
g12
g409
sg19
I00
sg20
g21
sg22
I00
sg23
g410
sg25
g411
sg27
I1
sg28
I01
sg29
S'to taste'
p841
sg31
F1.0
sba(iIngredients
Ingredient
p842
(dp843
g12
S'Worchestershire Sauce'
p844
sg19
I00
sg20
g21
sg22
I00
sg23
S'Condiments'
p845
sg25
S'sufw'
p846
sg27
I1
sg28
I01
sg29
S'to taste'
p847
sg31
F1.0
sba(iIngredients
Ingredient
p848
(dp849
g12
S'Baby Bella Mushrooms'
p850
sg19
I00
sg20
g21
sg22
I00
sg23
S'Produce:LeftSide'
p851
sg25
S'sufw'
p852
sg27
I1
sg28
I00
sg29
S'large box'
p853
sg31
F1.0
sba(iIngredients
Ingredient
p854
(dp855
g12
S'Heavy Cream'
p856
sg19
I00
sg20
g21
sg22
I00
sg23
S'MilkAndEggs'
p857
sg25
S'sufw'
p858
sg27
I1
sg28
I00
sg29
S'small'
p859
sg31
F1.0
sba(iIngredients
Ingredient
p860
(dp861
g12
S'Chicken Broth'
p862
sg19
I00
sg20
g21
sg22
I00
sg23
S'Soup'
p863
sg25
S'sufw'
p864
sg27
I1
sg28
I00
sg29
S'oz'
p865
sg31
F8.0
sba(iIngredients
Ingredient
p866
(dp867
g12
g348
sg19
I00
sg20
g21
sg22
I00
sg23
g349
sg25
g350
sg27
I1
sg28
I01
sg29
S'to taste'
p868
sg31
F1.0
sba(iIngredients
Ingredient
p869
(dp870
g12
S'GF Flour'
p871
sg19
I00
sg20
g21
sg22
I00
sg23
S'GF'
p872
sg25
S'sufw'
p873
sg27
I1
sg28
I01
sg29
S'Tbs'
p874
sg31
F4.0
sba(iIngredients
Ingredient
p875
(dp876
g12
g210
sg19
I00
sg20
g21
sg22
I00
sg23
g211
sg25
g145
sg27
I1
sg28
I01
sg29
S'Tbs'
p877
sg31
F4.0
sba(iIngredients
Ingredient
p878
(dp879
g12
S'Kluski Egg Noodles'
p880
sg19
I00
sg20
g21
sg22
I00
sg23
S'Pasta'
p881
sg25
S'sufw'
p882
sg27
I1
sg28
I00
sg29
S'Bag'
p883
sg31
F1.0
sba(iIngredients
Ingredient
p884
(dp885
g12
g187
sg19
I00
sg20
g21
sg22
I00
sg23
g188
sg25
g145
sg27
I1
sg28
I01
sg29
S'lb'
p886
sg31
F1.0
sba(iIngredients
Ingredient
p887
(dp888
g12
g738
sg19
I00
sg20
g21
sg22
I00
sg23
g739
sg25
g740
sg27
I1
sg28
I00
sg29
S'pint'
p889
sg31
F1.0
sba(iIngredients
Ingredient
p890
(dp891
g12
S'Parsely'
p892
sg19
I00
sg20
g21
sg22
I00
sg23
S'Baking'
p893
sg25
S'sufw'
p894
sg27
I1
sg28
I01
sg29
S'to taste'
p895
sg31
F1.0
sbasg76
I01
sg77
(lp896
g127
ag130
ag246
asg90
(lp897
S'Make Stroganoff\r'
p898
asg95
Nsg100
I4
sg101
I45
sg103
S'American'
p899
sg20
g261
sg106
(lp900
sba(iRecipe
Recipe
p901
(dp902
g7
I4
sg9
I00
sg10
S'Emily'
p903
sg12
S'Steak Sandwiches'
p904
sg14
(lp905
(iIngredients
Ingredient
p906
(dp907
g12
g115
sg19
I00
sg20
g116
sg22
I00
sg23
g117
sg25
g118
sg27
I1
sg28
I00
sg29
S'unit'
p908
sg31
F1.0
sba(iIngredients
Ingredient
p909
(dp910
g12
g233
sg19
I00
sg20
g21
sg22
I00
sg23
g234
sg25
g145
sg27
I1
sg28
I01
sg29
S'to taste'
p911
sg31
F1.0
sba(iIngredients
Ingredient
p912
(dp913
g12
g409
sg19
I00
sg20
g21
sg22
I00
sg23
g410
sg25
g411
sg27
I1
sg28
I01
sg29
S'to taste'
p914
sg31
F1.0
sba(iIngredients
Ingredient
p915
(dp916
g12
S'Mesquite'
p917
sg19
I00
sg20
g21
sg22
I00
sg23
S'Baking'
p918
sg25
S'sufw'
p919
sg27
I1
sg28
I01
sg29
S'to taste'
p920
sg31
F1.0
sba(iIngredients
Ingredient
p921
(dp922
g12
g457
sg19
I00
sg20
g21
sg22
I00
sg23
g458
sg25
g459
sg27
I1
sg28
I01
sg29
S'Tbs'
p923
sg31
F2.0
sba(iIngredients
Ingredient
p924
(dp925
g12
S'Honey'
p926
sg19
I00
sg20
g21
sg22
I00
sg23
S'PBJ'
p927
sg25
S'sufw'
p928
sg27
I1
sg28
I01
sg29
S'Tbs'
p929
sg31
F1.5
sba(iIngredients
Ingredient
p930
(dp931
g12
S'Flour'
p932
sg19
I00
sg20
g21
sg22
I00
sg23
S'Baking'
p933
sg25
S'sufw'
p934
sg27
I1
sg28
I01
sg29
S'cups'
p935
sg31
F3.0
sba(iIngredients
Ingredient
p936
(dp937
g12
S'Powdered Milk'
p938
sg19
I00
sg20
g21
sg22
I00
sg23
S'Baking'
p939
sg25
S'sufw'
p940
sg27
I1
sg28
I01
sg29
S'Tbs'
p941
sg31
F3.0
sba(iIngredients
Ingredient
p942
(dp943
g12
g56
sg19
I00
sg20
g21
sg22
I00
sg23
g57
sg25
g58
sg27
I1
sg28
I01
sg29
S'tsp'
p944
sg31
F1.5
sba(iIngredients
Ingredient
p945
(dp946
g12
S'Yeast'
p947
sg19
I00
sg20
g21
sg22
I00
sg23
S'Baking'
p948
sg25
S'sufw'
p949
sg27
I1
sg28
I01
sg29
S'tsp'
p950
sg31
F1.25
sba(iIngredients
Ingredient
p951
(dp952
g12
S'Soft Cheese'
p953
sg19
I00
sg20
g21
sg22
I00
sg23
S'Cheese'
p954
sg25
S'sufw'
p955
sg27
I1
sg28
I00
sg29
S'unit'
p956
sg31
F1.0
sbasg76
I01
sg77
(lp957
g127
ag130
ag87
asg90
(lp958
S'Make steak'
p959
aS'Make bread\r'
p960
asg95
Nsg100
I7
sg101
I20
sg103
S'American'
p961
sg20
g116
sg106
(lp962
sba(iRecipe
Recipe
p963
(dp964
g7
I1
sg9
I01
sg10
S'Emily'
p965
sg12
S'Roast Turkey'
p966
sg14
(lp967
(iIngredients
Ingredient
p968
(dp969
g12
S'Turkey'
p970
sg19
I00
sg20
S'Turkey'
p971
sg22
I01
sg23
S'Meat'
p972
sg25
S'fw'
p973
sg27
I1
sg28
I00
sg29
S'unit'
p974
sg31
F1.0
sba(iIngredients
Ingredient
p975
(dp976
g12
g56
sg19
I00
sg20
g21
sg22
I00
sg23
g57
sg25
g58
sg27
I1
sg28
I01
sg29
S'to taste'
p977
sg31
F1.0
sba(iIngredients
Ingredient
p978
(dp979
g12
g51
sg19
I00
sg20
g21
sg22
I00
sg23
g52
sg25
g36
sg27
I1
sg28
I00
sg29
S'cloves'
p980
sg31
F8.0
sba(iIngredients
Ingredient
p981
(dp982
g12
g348
sg19
I00
sg20
g21
sg22
I00
sg23
g349
sg25
g350
sg27
I1
sg28
I01
sg29
S'to taste'
p983
sg31
F1.0
sba(iIngredients
Ingredient
p984
(dp985
g12
g18
sg19
I00
sg20
g21
sg22
I00
sg23
g24
sg25
g26
sg27
I1
sg28
I00
sg29
S'to taste'
p986
sg31
F1.0
sba(iIngredients
Ingredient
p987
(dp988
g12
S'Poultry Seasoning'
p989
sg19
I00
sg20
g21
sg22
I00
sg23
S'Baking'
p990
sg25
S'sufw'
p991
sg27
I1
sg28
I01
sg29
S'to taste'
p992
sg31
F1.0
sbasg76
I01
sg77
(lp993
g127
asg90
(lp994
S'Make turkey\r'
p995
asg95
Nsg100
I5
sg101
I20
sg103
S'American'
p996
sg20
g971
sg106
g962
sba(iRecipe
Recipe
p997
(dp998
g7
I3
sg9
I01
sg10
S'Emily'
p999
sg12
S'Roast Beef'
p1000
sg14
(lp1001
(iIngredients
Ingredient
p1002
(dp1003
g12
S'Bottom Round Roast'
p1004
sg19
I00
sg20
S'Beef'
p1005
sg22
I01
sg23
S'Meat'
p1006
sg25
S'sufw'
p1007
sg27
I1
sg28
I00
sg29
S'unit'
p1008
sg31
F1.0
sba(iIngredients
Ingredient
p1009
(dp1010
g12
g266
sg19
I00
sg20
g21
sg22
I00
sg23
g267
sg25
g268
sg27
I1
sg28
I00
sg29
S'unit'
p1011
sg31
F1.0
sba(iIngredients
Ingredient
p1012
(dp1013
g12
g56
sg19
I00
sg20
g21
sg22
I00
sg23
g57
sg25
g58
sg27
I1
sg28
I01
sg29
S'to taste'
p1014
sg31
F1.0
sba(iIngredients
Ingredient
p1015
(dp1016
g12
g233
sg19
I00
sg20
g21
sg22
I00
sg23
g234
sg25
g145
sg27
I1
sg28
I01
sg29
S'to taste'
p1017
sg31
F1.0
sba(iIngredients
Ingredient
p1018
(dp1019
g12
S'Rosemary'
p1020
sg19
I00
sg20
g21
sg22
I00
sg23
S'Baking'
p1021
sg25
S'sufw'
p1022
sg27
I1
sg28
I01
sg29
S'to taste'
p1023
sg31
F1.0
sba(iIngredients
Ingredient
p1024
(dp1025
g12
g18
sg19
I00
sg20
g21
sg22
I00
sg23
g24
sg25
g26
sg27
I1
sg28
I00
sg29
S'to taste'
p1026
sg31
F1.0
sba(iIngredients
Ingredient
p1027
(dp1028
g12
S'Marjoram'
p1029
sg19
I00
sg20
g21
sg22
I00
sg23
S'Baking'
p1030
sg25
S'sufw'
p1031
sg27
I1
sg28
I01
sg29
S'to taste'
p1032
sg31
F1.0
sba(iIngredients
Ingredient
p1033
(dp1034
g12
S'Celery Salt'
p1035
sg19
I00
sg20
g21
sg22
I00
sg23
S'Baking'
p1036
sg25
S'sufw'
p1037
sg27
I1
sg28
I01
sg29
S'to taste'
p1038
sg31
F1.0
sbasg76
I01
sg77
(lp1039
g127
ag130
asg90
(lp1040
S'Make roast beef\r'
p1041
asg95
Nsg100
I2
sg101
I20
sg103
S'American'
p1042
sg20
g1005
sg106
g962
sba(iRecipe
Recipe
p1043
(dp1044
g7
I3
sg9
I00
sg10
S'Emily'
p1045
sg12
S'Glaese'
p1046
sg14
(lp1047
(iIngredients
Ingredient
p1048
(dp1049
g12
g871
sg19
I00
sg20
g21
sg22
I00
sg23
g872
sg25
g873
sg27
I1
sg28
I01
sg29
S'cups'
p1050
sg31
F4.0
sba(iIngredients
Ingredient
p1051
(dp1052
g12
g801
sg19
I00
sg20
g802
sg22
I00
sg23
g803
sg25
g804
sg27
I1
sg28
I01
sg29
S'units'
p1053
sg31
F4.0
sba(iIngredients
Ingredient
p1054
(dp1055
g12
S'Baking Powder'
p1056
sg19
I00
sg20
g21
sg22
I00
sg23
S'Baking'
p1057
sg25
S'sufw'
p1058
sg27
I1
sg28
I01
sg29
S'tsp'
p1059
sg31
F4.0
sba(iIngredients
Ingredient
p1060
(dp1061
g12
g783
sg19
I00
sg20
g21
sg22
I00
sg23
g784
sg25
g785
sg27
I1
sg28
I00
sg29
S'unit'
p1062
sg31
F1.0
sba(iIngredients
Ingredient
p1063
(dp1064
g12
g266
sg19
I00
sg20
g21
sg22
I00
sg23
g267
sg25
g268
sg27
I1
sg28
I00
sg29
S'unit'
p1065
sg31
F1.0
sba(iIngredients
Ingredient
p1066
(dp1067
g12
g210
sg19
I00
sg20
g21
sg22
I00
sg23
g211
sg25
g145
sg27
I1
sg28
I01
sg29
S'stick'
p1068
sg31
F1.0
sba(iIngredients
Ingredient
p1069
(dp1070
g12
g224
sg19
I00
sg20
g21
sg22
I00
sg23
g225
sg25
g226
sg27
I1
sg28
I00
sg29
S'to taste'
p1071
sg31
F1.0
sba(iIngredients
Ingredient
p1072
(dp1073
g12
S'Half and Half'
p1074
sg19
I00
sg20
g21
sg22
I00
sg23
S'MilkAndEggs'
p1075
sg25
S'sufw'
p1076
sg27
I1
sg28
I00
sg29
S'qt'
p1077
sg31
F1.0
sba(iIngredients
Ingredient
p1078
(dp1079
g12
g56
sg19
I00
sg20
g21
sg22
I00
sg23
g57
sg25
g58
sg27
I1
sg28
I01
sg29
S'to taste'
p1080
sg31
F1.0
sbasg76
I01
sg77
(lp1081
g87
ag246
asg90
(lp1082
S'Make glaese\r'
p1083
asg95
Nsg100
I5
sg101
I45
sg103
S'Soup'
p1084
sg20
g802
sg106
g962
sba(iRecipe
Recipe
p1085
(dp1086
g7
I4
sg9
I01
sg10
S'Jason'
p1087
sg12
S'Red Beans and Rice'
p1088
sg14
(lp1089
(iIngredients
Ingredient
p1090
(dp1091
g12
g538
sg19
I00
sg20
g21
sg22
I00
sg23
g539
sg25
g540
sg27
I1
sg28
I01
sg29
S'cups'
p1092
sg31
F3.0
sba(iIngredients
Ingredient
p1093
(dp1094
g12
g563
sg19
I00
sg20
g21
sg22
I00
sg23
g564
sg25
g565
sg27
I1
sg28
I00
sg29
S'cans'
p1095
sg31
F2.0
sba(iIngredients
Ingredient
p1096
(dp1097
g12
S'Smoked Sausage'
p1098
sg19
I00
sg20
S'Pork'
p1099
sg22
I00
sg23
S'Meat'
p1100
sg25
S'sufw'
p1101
sg27
I1
sg28
I00
sg29
S'lb'
p1102
sg31
F2.0
sba(iIngredients
Ingredient
p1103
(dp1104
g12
g56
sg19
I00
sg20
g21
sg22
I00
sg23
g57
sg25
g58
sg27
I1
sg28
I01
sg29
S'to taste'
p1105
sg31
F1.0
sba(iIngredients
Ingredient
p1106
(dp1107
g12
g233
sg19
I00
sg20
g21
sg22
I00
sg23
g234
sg25
g145
sg27
I1
sg28
I01
sg29
S'to taste'
p1108
sg31
F1.0
sba(iIngredients
Ingredient
p1109
(dp1110
g12
g608
sg19
I00
sg20
g21
sg22
I00
sg23
g609
sg25
g610
sg27
I1
sg28
I01
sg29
S'to taste'
p1111
sg31
F1.0
sba(iIngredients
Ingredient
p1112
(dp1113
g12
g532
sg19
I00
sg20
g21
sg22
I00
sg23
g533
sg25
g534
sg27
I1
sg28
I01
sg29
S'to taste'
p1114
sg31
F1.0
sba(iIngredients
Ingredient
p1115
(dp1116
g12
g409
sg19
I00
sg20
g21
sg22
I00
sg23
g410
sg25
g411
sg27
I1
sg28
I01
sg29
S'to taste'
p1117
sg31
F1.0
sba(iIngredients
Ingredient
p1118
(dp1119
g12
g51
sg19
I00
sg20
g21
sg22
I00
sg23
g52
sg25
g36
sg27
I1
sg28
I00
sg29
S'to taste'
p1120
sg31
F1.0
sbasg76
I01
sg77
(lp1121
g127
asg90
(lp1122
S'Make Red Beans and Rice\r'
p1123
asg95
Nsg100
I3
sg101
I30
sg103
S'Cajun'
p1124
sg20
g1099
sg106
g962
sba(iRecipe
Recipe
p1125
(dp1126
g7
I5
sg9
I00
sg10
S'Emily'
p1127
sg12
S'Turkey Soup'
p1128
sg14
(lp1129
(iIngredients
Ingredient
p1130
(dp1131
g12
g970
sg19
I00
sg20
g971
sg22
I01
sg23
g972
sg25
g973
sg27
I1
sg28
I00
sg29
S'unit'
p1132
sg31
F1.0
sba(iIngredients
Ingredient
p1133
(dp1134
g12
g266
sg19
I00
sg20
g21
sg22
I00
sg23
g267
sg25
g268
sg27
I1
sg28
I00
sg29
S'unit'
p1135
sg31
F1.0
sba(iIngredients
Ingredient
p1136
(dp1137
g12
g526
sg19
I00
sg20
g21
sg22
I00
sg23
g527
sg25
g528
sg27
I1
sg28
I00
sg29
S'unit'
p1138
sg31
F1.0
sba(iIngredients
Ingredient
p1139
(dp1140
g12
g272
sg19
I00
sg20
g21
sg22
I00
sg23
g273
sg25
g274
sg27
I1
sg28
I00
sg29
S'units'
p1141
sg31
F4.0
sba(iIngredients
Ingredient
p1142
(dp1143
g12
g871
sg19
I00
sg20
g21
sg22
I00
sg23
g872
sg25
g873
sg27
I1
sg28
I01
sg29
S'cups'
p1144
sg31
F4.0
sba(iIngredients
Ingredient
p1145
(dp1146
g12
g801
sg19
I00
sg20
g802
sg22
I00
sg23
g803
sg25
g804
sg27
I1
sg28
I01
sg29
S'units'
p1147
sg31
F4.0
sba(iIngredients
Ingredient
p1148
(dp1149
g12
g1056
sg19
I00
sg20
g21
sg22
I00
sg23
g1057
sg25
g1058
sg27
I1
sg28
I01
sg29
S'tsp'
p1150
sg31
F2.0
sba(iIngredients
Ingredient
p1151
(dp1152
g12
S'Kluski'
p1153
sg19
I00
sg20
g21
sg22
I00
sg23
S'Pasta'
p1154
sg25
S'sufw'
p1155
sg27
I1
sg28
I00
sg29
S'bag'
p1156
sg31
F1.0
sba(iIngredients
Ingredient
p1157
(dp1158
g12
g51
sg19
I00
sg20
g21
sg22
I00
sg23
g52
sg25
g36
sg27
I1
sg28
I00
sg29
S'to taste'
p1159
sg31
F1.0
sba(iIngredients
Ingredient
p1160
(dp1161
g12
g233
sg19
I00
sg20
g21
sg22
I00
sg23
g234
sg25
g145
sg27
I1
sg28
I01
sg29
S'to taste'
p1162
sg31
F1.0
sba(iIngredients
Ingredient
p1163
(dp1164
g12
g989
sg19
I00
sg20
g21
sg22
I00
sg23
g990
sg25
g991
sg27
I1
sg28
I01
sg29
S'to taste'
p1165
sg31
F1.0
sba(iIngredients
Ingredient
p1166
(dp1167
g12
S'Sage'
p1168
sg19
I00
sg20
g21
sg22
I00
sg23
S'Baking'
p1169
sg25
S'sufw'
p1170
sg27
I1
sg28
I01
sg29
S'to taste'
p1171
sg31
F1.0
sba(iIngredients
Ingredient
p1172
(dp1173
g12
g18
sg19
I00
sg20
g21
sg22
I00
sg23
g24
sg25
g26
sg27
I1
sg28
I00
sg29
S'to taste'
p1174
sg31
F1.0
sba(iIngredients
Ingredient
p1175
(dp1176
g12
g348
sg19
I00
sg20
g21
sg22
I00
sg23
g349
sg25
g350
sg27
I1
sg28
I01
sg29
S'to taste'
p1177
sg31
F1.0
sbasg76
I01
sg77
(lp1178
g127
asg90
(lp1179
S'Make soup\r'
p1180
asg95
Nsg100
I6
sg101
I40
sg103
S'Soup'
p1181
sg20
g971
sg106
g962
sba(iRecipe
Recipe
p1182
(dp1183
g7
I4
sg9
I00
sg10
S'Emily'
p1184
sg12
S'Zuppa Toscana'
p1185
sg14
(lp1186
(iIngredients
Ingredient
p1187
(dp1188
g12
g862
sg19
I00
sg20
g21
sg22
I00
sg23
g863
sg25
g864
sg27
I1
sg28
I00
sg29
S'cups'
p1189
sg31
F5.5
sba(iIngredients
Ingredient
p1190
(dp1191
g12
g856
sg19
I00
sg20
g21
sg22
I00
sg23
g857
sg25
g858
sg27
I1
sg28
I00
sg29
S'cups'
p1192
sg31
F2.0
sba(iIngredients
Ingredient
p1193
(dp1194
g12
S'Kale'
p1195
sg19
I00
sg20
g21
sg22
I00
sg23
S'Produce:RightSide'
p1196
sg25
S'sufw'
p1197
sg27
I1
sg28
I00
sg29
S'bunches'
p1198
sg31
F2.0
sba(iIngredients
Ingredient
p1199
(dp1200
g12
S'Purple Potatoes'
p1201
sg19
I00
sg20
g21
sg22
I00
sg23
S'Produce:Back'
p1202
sg25
S'sufw'
p1203
sg27
I1
sg28
I00
sg29
S'units'
p1204
sg31
F6.0
sba(iIngredients
Ingredient
p1205
(dp1206
g12
g160
sg19
I00
sg20
g161
sg22
I00
sg23
g162
sg25
g145
sg27
I1
sg28
I00
sg29
S'lb'
p1207
sg31
F1.0
sba(iIngredients
Ingredient
p1208
(dp1209
g12
g56
sg19
I00
sg20
g21
sg22
I00
sg23
g57
sg25
g58
sg27
I1
sg28
I01
sg29
S'to taste'
p1210
sg31
F1.0
sba(iIngredients
Ingredient
p1211
(dp1212
g12
g233
sg19
I00
sg20
g21
sg22
I00
sg23
g234
sg25
g145
sg27
I1
sg28
I01
sg29
S'to taste'
p1213
sg31
F1.0
sba(iIngredients
Ingredient
p1214
(dp1215
g12
g169
sg19
I00
sg20
g21
sg22
I00
sg23
g170
sg25
g145
sg27
I1
sg28
I01
sg29
S'to taste'
p1216
sg31
F1.0
sbasg76
I01
sg77
(lp1217
g127
ag87
ag246
asg90
(lp1218
S'Make soup \r'
p1219
asg95
Nsg100
I6
sg101
I180
sg103
S'Soup'
p1220
sg20
g161
sg106
g962
sba(iRecipe
Recipe
p1221
(dp1222
g7
I3
sg9
I01
sg10
S'Emily'
p1223
sg12
S'Rigatoni'
p1224
sg14
(lp1225
(iIngredients
Ingredient
p1226
(dp1227
g12
S'Whole Tomatoes'
p1228
sg19
I00
sg20
g21
sg22
I00
sg23
S'Tomato'
p1229
sg25
S'sufw'
p1230
sg27
I1
sg28
I00
sg29
S'oz'
p1231
sg31
F56.0
sba(iIngredients
Ingredient
p1232
(dp1233
g12
g327
sg19
I00
sg20
g21
sg22
I00
sg23
g328
sg25
g329
sg27
I1
sg28
I01
sg29
S'cup'
p1234
sg31
F1.0
sba(iIngredients
Ingredient
p1235
(dp1236
g12
g457
sg19
I00
sg20
g21
sg22
I00
sg23
g458
sg25
g459
sg27
I1
sg28
I01
sg29
S'Tbs'
p1237
sg31
F9.0
sba(iIngredients
Ingredient
p1238
(dp1239
g12
g51
sg19
I00
sg20
g21
sg22
I00
sg23
g52
sg25
g36
sg27
I1
sg28
I00
sg29
S'cloves'
p1240
sg31
F10.0
sba(iIngredients
Ingredient
p1241
(dp1242
g12
g18
sg19
I00
sg20
g21
sg22
I00
sg23
g24
sg25
g26
sg27
I1
sg28
I00
sg29
S'leaves'
p1243
sg31
F12.0
sba(iIngredients
Ingredient
p1244
(dp1245
g12
S'Pasta Rigatoni'
p1246
sg19
I00
sg20
g21
sg22
I00
sg23
S'Pasta'
p1247
sg25
S'sufw'
p1248
sg27
I1
sg28
I00
sg29
S'lb'
p1249
sg31
F1.0
sba(iIngredients
Ingredient
p1250
(dp1251
g12
g187
sg19
I00
sg20
g21
sg22
I00
sg23
g188
sg25
g145
sg27
I1
sg28
I01
sg29
S'lb'
p1252
sg31
F1.0
sba(iIngredients
Ingredient
p1253
(dp1254
g12
S'Mozzarella'
p1255
sg19
I00
sg20
g21
sg22
I00
sg23
S'Cheese'
p1256
sg25
S'sufw'
p1257
sg27
I1
sg28
I00
sg29
S'ball'
p1258
sg31
F1.0
sba(iIngredients
Ingredient
p1259
(dp1260
g12
g169
sg19
I00
sg20
g21
sg22
I00
sg23
g170
sg25
g145
sg27
I1
sg28
I01
sg29
S'to taste'
p1261
sg31
F1.0
sbasg76
I01
sg77
(lp1262
g87
asg90
(lp1263
S'Make rigatoni\r'
p1264
asg95
Nsg100
I2
sg101
I40
sg103
S'Italian'
p1265
sg20
g252
sg106
g962
sba(iRecipe
Recipe
p1266
(dp1267
g7
I4
sg9
I00
sg10
S'Jason'
p1268
sg12
S'Cashew Curry'
p1269
sg14
(lp1270
(iIngredients
Ingredient
p1271
(dp1272
g12
S'Peanut Oil'
p1273
sg19
I00
sg20
g21
sg22
I00
sg23
S'Baking'
p1274
sg25
S'sufw'
p1275
sg27
I1
sg28
I01
sg29
S'to taste'
p1276
sg31
F1.0
sba(iIngredients
Ingredient
p1277
(dp1278
g12
g266
sg19
I00
sg20
g21
sg22
I00
sg23
g267
sg25
g268
sg27
I1
sg28
I00
sg29
S'unit'
p1279
sg31
F1.0
sba(iIngredients
Ingredient
p1280
(dp1281
g12
S'Cashews'
p1282
sg19
I00
sg20
g21
sg22
I00
sg23
S'WholeNuts'
p1283
sg25
S'sufw'
p1284
sg27
I1
sg28
I00
sg29
S'box'
p1285
sg31
F1.0
sba(iIngredients
Ingredient
p1286
(dp1287
g12
S'Ginger'
p1288
sg19
I00
sg20
g21
sg22
I00
sg23
S'Produce:Asian'
p1289
sg25
S'sufw'
p1290
sg27
I1
sg28
I00
sg29
S'six-inch piece'
p1291
sg31
F1.0
sba(iIngredients
Ingredient
p1292
(dp1293
g12
g51
sg19
I00
sg20
g21
sg22
I00
sg23
g52
sg25
g36
sg27
I1
sg28
I00
sg29
S'cloves'
p1294
sg31
F4.0
sba(iIngredients
Ingredient
p1295
(dp1296
g12
g397
sg19
I00
sg20
g21
sg22
I00
sg23
g398
sg25
g399
sg27
I1
sg28
I01
sg29
S'to taste'
p1297
sg31
F1.0
sba(iIngredients
Ingredient
p1298
(dp1299
g12
g210
sg19
I00
sg20
g21
sg22
I00
sg23
g211
sg25
g145
sg27
I1
sg28
I01
sg29
S'Tbs'
p1300
sg31
F1.0
sba(iIngredients
Ingredient
p1301
(dp1302
g12
g56
sg19
I00
sg20
g21
sg22
I00
sg23
g57
sg25
g58
sg27
I1
sg28
I01
sg29
S'to taste'
p1303
sg31
F1.0
sba(iIngredients
Ingredient
p1304
(dp1305
g12
S'Chicken Thighs'
p1306
sg19
I00
sg20
S'Chicken'
p1307
sg22
I01
sg23
S'Meat'
p1308
sg25
S'sufw'
p1309
sg27
I1
sg28
I00
sg29
S'lb'
p1310
sg31
F2.0
sba(iIngredients
Ingredient
p1311
(dp1312
g12
S'Plain Yoghurt'
p1313
sg19
I00
sg20
g21
sg22
I00
sg23
S'Back:Yogurt'
p1314
sg25
S'sufw'
p1315
sg27
I1
sg28
I00
sg29
S'cups'
p1316
sg31
F0.5
sbasg76
I01
sg77
(lp1317
g87
ag246
ag127
ag79
asg90
(lp1318
S'Make curry\r'
p1319
asg95
Nsg100
I8
sg101
I60
sg103
S'Indian'
p1320
sg20
g1307
sg106
g962
sba(iRecipe
Recipe
p1321
(dp1322
g7
I4
sg9
I01
sg10
S'Jason'
p1323
sg12
S'New Bride Chicken Curry'
p1324
sg14
(lp1325
(iIngredients
Ingredient
p1326
(dp1327
g12
S'Oil'
p1328
sg19
I00
sg20
g21
sg22
I00
sg23
S'Baking'
p1329
sg25
S'sufw'
p1330
sg27
I1
sg28
I01
sg29
S'to taste'
p1331
sg31
F1.0
sba(iIngredients
Ingredient
p1332
(dp1333
g12
g266
sg19
I00
sg20
g21
sg22
I00
sg23
g267
sg25
g268
sg27
I1
sg28
I00
sg29
S'units'
p1334
sg31
F2.0
sba(iIngredients
Ingredient
p1335
(dp1336
g12
g51
sg19
I00
sg20
g21
sg22
I00
sg23
g52
sg25
g36
sg27
I1
sg28
I00
sg29
S'cloves'
p1337
sg31
F4.0
sba(iIngredients
Ingredient
p1338
(dp1339
g12
g397
sg19
I00
sg20
g21
sg22
I00
sg23
g398
sg25
g399
sg27
I1
sg28
I01
sg29
S'to taste'
p1340
sg31
F1.0
sba(iIngredients
Ingredient
p1341
(dp1342
g12
S'Turmeric'
p1343
sg19
I00
sg20
g21
sg22
I00
sg23
S'Baking'
p1344
sg25
S'sufw'
p1345
sg27
I1
sg28
I01
sg29
S'to taste'
p1346
sg31
F1.0
sba(iIngredients
Ingredient
p1347
(dp1348
g12
S'Tomatoes on the Vine'
p1349
sg19
I00
sg20
g21
sg22
I00
sg23
S'Produce:Middle'
p1350
sg25
S'sufw'
p1351
sg27
I1
sg28
I00
sg29
S'box'
p1352
sg31
F1.0
sba(iIngredients
Ingredient
p1353
(dp1354
g12
g1306
sg19
I00
sg20
g1307
sg22
I01
sg23
g1308
sg25
g1309
sg27
I1
sg28
I00
sg29
S'lb'
p1355
sg31
F4.0
sba(iIngredients
Ingredient
p1356
(dp1357
g12
g56
sg19
I00
sg20
g21
sg22
I00
sg23
g57
sg25
g58
sg27
I1
sg28
I01
sg29
S'to taste'
p1358
sg31
F1.0
sbasg76
I01
sg77
(lp1359
g127
ag417
asg90
(lp1360
S'Make curry\r'
p1361
asg95
Nsg100
I7
sg101
I80
sg103
S'Indian'
p1362
sg20
g1307
sg106
g962
sba(iRecipe
Recipe
p1363
(dp1364
g7
I4
sg9
I01
sg10
S'Jason'
p1365
sg12
S'Beef Curry'
p1366
sg14
(lp1367
(iIngredients
Ingredient
p1368
(dp1369
g12
g1328
sg19
I00
sg20
g21
sg22
I00
sg23
g1329
sg25
g1330
sg27
I1
sg28
I01
sg29
S'to taste'
p1370
sg31
F1.0
sba(iIngredients
Ingredient
p1371
(dp1372
g12
g266
sg19
I00
sg20
g21
sg22
I00
sg23
g267
sg25
g268
sg27
I1
sg28
I00
sg29
S'unit'
p1373
sg31
F1.0
sba(iIngredients
Ingredient
p1374
(dp1375
g12
S'Coriander'
p1376
sg19
I00
sg20
g21
sg22
I00
sg23
S'Baking'
p1377
sg25
S'sufw'
p1378
sg27
I1
sg28
I01
sg29
S'to taste'
p1379
sg31
F1.0
sba(iIngredients
Ingredient
p1380
(dp1381
g12
g51
sg19
I00
sg20
g21
sg22
I00
sg23
g52
sg25
g36
sg27
I1
sg28
I00
sg29
S'cloves'
p1382
sg31
F6.0
sba(iIngredients
Ingredient
p1383
(dp1384
g12
g1288
sg19
I00
sg20
g21
sg22
I00
sg23
g1289
sg25
g1290
sg27
I1
sg28
I00
sg29
S'unit'
p1385
sg31
F1.0
sba(iIngredients
Ingredient
p1386
(dp1387
g12
g397
sg19
I00
sg20
g21
sg22
I00
sg23
g398
sg25
g399
sg27
I1
sg28
I01
sg29
S'to taste'
p1388
sg31
F1.0
sba(iIngredients
Ingredient
p1389
(dp1390
g12
g1343
sg19
I00
sg20
g21
sg22
I00
sg23
g1344
sg25
g1345
sg27
I1
sg28
I01
sg29
S'to taste'
p1391
sg31
F1.0
sba(iIngredients
Ingredient
p1392
(dp1393
g12
S'Chuck Roast'
p1394
sg19
I00
sg20
S'Beef'
p1395
sg22
I01
sg23
S'Meat'
p1396
sg25
S'sufw'
p1397
sg27
I1
sg28
I00
sg29
S'unit'
p1398
sg31
F1.0
sba(iIngredients
Ingredient
p1399
(dp1400
g12
g56
sg19
I00
sg20
g21
sg22
I00
sg23
g57
sg25
g58
sg27
I1
sg28
I01
sg29
S'to taste'
p1401
sg31
F1.0
sba(iIngredients
Ingredient
p1402
(dp1403
g12
g783
sg19
I00
sg20
g21
sg22
I00
sg23
g784
sg25
g785
sg27
I1
sg28
I00
sg29
S'bag'
p1404
sg31
F1.0
sba(iIngredients
Ingredient
p1405
(dp1406
g12
S'Serrano Peppers'
p1407
sg19
I00
sg20
g21
sg22
I00
sg23
S'Produce:LeftSide'
p1408
sg25
S'sufw'
p1409
sg27
I1
sg28
I00
sg29
S'units'
p1410
sg31
F2.0
sbasg76
I01
sg77
(lp1411
g127
ag417
asg90
(lp1412
S'Make curry\r'
p1413
asg95
Nsg100
I9
sg101
I100
sg103
S'Indian'
p1414
sg20
g1395
sg106
g962
sba(iRecipe
Recipe
p1415
(dp1416
g7
I3
sg9
I01
sg10
S'Emily'
p1417
sg12
S'Pizza'
p1418
sg14
(lp1419
(iIngredients
Ingredient
p1420
(dp1421
g12
g457
sg19
I00
sg20
g21
sg22
I00
sg23
g458
sg25
g459
sg27
I1
sg28
I01
sg29
S'Tbs'
p1422
sg31
F2.0
sba(iIngredients
Ingredient
p1423
(dp1424
g12
g56
sg19
I00
sg20
g21
sg22
I00
sg23
g57
sg25
g58
sg27
I1
sg28
I01
sg29
S'tsp'
p1425
sg31
F0.75
sba(iIngredients
Ingredient
p1426
(dp1427
g12
S'Bread Flour'
p1428
sg19
I00
sg20
g21
sg22
I00
sg23
S'Baking'
p1429
sg25
S'sufw'
p1430
sg27
I1
sg28
I01
sg29
S'cups'
p1431
sg31
F3.0
sba(iIngredients
Ingredient
p1432
(dp1433
g12
g947
sg19
I00
sg20
g21
sg22
I00
sg23
g948
sg25
g949
sg27
I1
sg28
I01
sg29
S'tsp'
p1434
sg31
F2.0
sba(iIngredients
Ingredient
p1435
(dp1436
g12
S'Cornmeal'
p1437
sg19
I00
sg20
g21
sg22
I00
sg23
S'Baking'
p1438
sg25
S'sufw'
p1439
sg27
I1
sg28
I01
sg29
S'Tbs'
p1440
sg31
F1.0
sba(iIngredients
Ingredient
p1441
(dp1442
g12
S'Italian Cheese'
p1443
sg19
I00
sg20
g21
sg22
I00
sg23
S'Back:ButterAndCheese'
p1444
sg25
S'sufw'
p1445
sg27
I1
sg28
I00
sg29
S'bags'
p1446
sg31
F2.0
sba(iIngredients
Ingredient
p1447
(dp1448
g12
g278
sg19
I00
sg20
g21
sg22
I00
sg23
g279
sg25
g280
sg27
I1
sg28
I00
sg29
S'small box'
p1449
sg31
F1.0
sba(iIngredients
Ingredient
p1450
(dp1451
g12
g348
sg19
I00
sg20
g21
sg22
I00
sg23
g349
sg25
g350
sg27
I1
sg28
I01
sg29
S'to taste'
p1452
sg31
F1.0
sba(iIngredients
Ingredient
p1453
(dp1454
g12
g18
sg19
I00
sg20
g21
sg22
I00
sg23
g24
sg25
g26
sg27
I1
sg28
I00
sg29
S'to taste'
p1455
sg31
F1.0
sba(iIngredients
Ingredient
p1456
(dp1457
g12
g233
sg19
I00
sg20
g21
sg22
I00
sg23
g234
sg25
g145
sg27
I1
sg28
I01
sg29
S'to taste'
p1458
sg31
F1.0
sba(iIngredients
Ingredient
p1459
(dp1460
g12
S'Truffle Oil'
p1461
sg19
I00
sg20
g21
sg22
I00
sg23
S'Baking'
p1462
sg25
S'sufw'
p1463
sg27
I1
sg28
I01
sg29
S'to taste'
p1464
sg31
F1.0
sba(iIngredients
Ingredient
p1465
(dp1466
g12
g801
sg19
I00
sg20
g802
sg22
I00
sg23
g803
sg25
g804
sg27
I1
sg28
I01
sg29
S'unit'
p1467
sg31
F1.0
sbasg76
I01
sg77
(lp1468
g87
ag246
asg90
(lp1469
S'Make pizza\r'
p1470
asg95
Nsg100
I5
sg101
I20
sg103
S'Italian'
p1471
sg20
g802
sg106
g962
sba(iRecipe
Recipe
p1472
(dp1473
g7
I4
sg9
I00
sg10
S'Emily'
p1474
sg12
S'Guacamole'
p1475
sg14
(lp1476
(iIngredients
Ingredient
p1477
(dp1478
g12
g51
sg19
I00
sg20
g21
sg22
I00
sg23
g52
sg25
g36
sg27
I1
sg28
I00
sg29
S'cloves'
p1479
sg31
F2.0
sba(iIngredients
Ingredient
p1480
(dp1481
g12
g266
sg19
I00
sg20
g21
sg22
I00
sg23
g267
sg25
g268
sg27
I1
sg28
I00
sg29
S'unit'
p1482
sg31
F0.5
sba(iIngredients
Ingredient
p1483
(dp1484
g12
S'Lime'
p1485
sg19
I00
sg20
g21
sg22
I00
sg23
S'Produce:Middle'
p1486
sg25
S'uf'
p1487
sg27
I1
sg28
I00
sg29
S'unit'
p1488
sg31
F1.0
sba(iIngredients
Ingredient
p1489
(dp1490
g12
S'Avocados'
p1491
sg19
I00
sg20
g21
sg22
I00
sg23
S'Produce:Front'
p1492
sg25
S'sufw'
p1493
sg27
I1
sg28
I00
sg29
S'units'
p1494
sg31
F8.0
sba(iIngredients
Ingredient
p1495
(dp1496
g12
S'Roma Tomatoes'
p1497
sg19
I00
sg20
g21
sg22
I00
sg23
S'Produce:Middle'
p1498
sg25
S'sufw'
p1499
sg27
I1
sg28
I00
sg29
S'units'
p1500
sg31
F2.0
sba(iIngredients
Ingredient
p1501
(dp1502
g12
S'Cilantro'
p1503
sg19
I01
sg20
g21
sg22
I00
sg23
S'Produce:Herbs'
p1504
sg25
S'sufw'
p1505
sg27
I1
sg28
I00
sg29
S'bunch'
p1506
sg31
F1.0
sba(iIngredients
Ingredient
p1507
(dp1508
g12
g56
sg19
I00
sg20
g21
sg22
I00
sg23
g57
sg25
g58
sg27
I1
sg28
I01
sg29
S'to taste'
p1509
sg31
F1.0
sba(iIngredients
Ingredient
p1510
(dp1511
g12
g233
sg19
I00
sg20
g21
sg22
I00
sg23
g234
sg25
g145
sg27
I1
sg28
I01
sg29
S'to taste'
p1512
sg31
F1.0
sba(iIngredients
Ingredient
p1513
(dp1514
g12
S'Chips'
p1515
sg19
I00
sg20
g21
sg22
I00
sg23
S'Snacks'
p1516
sg25
S'sufw'
p1517
sg27
I1
sg28
I00
sg29
S'bag'
p1518
sg31
F1.0
sbasg76
I01
sg77
(lp1519
sg90
(lp1520
S'Make guac\r'
p1521
asg95
Nsg100
I8
sg101
I20
sg103
S'Snack'
p1522
sg20
g252
sg106
g962
sba(iRecipe
Recipe
p1523
(dp1524
g7
I3
sg9
I00
sg10
S'Emily'
p1525
sg12
S'Chicken Pot Pie'
p1526
sg14
(lp1527
(iIngredients
Ingredient
p1528
(dp1529
g12
g932
sg19
I00
sg20
g21
sg22
I00
sg23
g933
sg25
g934
sg27
I1
sg28
I01
sg29
S'cups'
p1530
sg31
F2.0
sba(iIngredients
Ingredient
p1531
(dp1532
g12
g210
sg19
I00
sg20
g21
sg22
I00
sg23
g211
sg25
g145
sg27
I1
sg28
I01
sg29
S'sticks'
p1533
sg31
F2.0
sba(iIngredients
Ingredient
p1534
(dp1535
g12
g56
sg19
I00
sg20
g21
sg22
I00
sg23
g57
sg25
g58
sg27
I1
sg28
I01
sg29
S'to taste'
p1536
sg31
F1.0
sba(iIngredients
Ingredient
p1537
(dp1538
g12
S'Leeks'
p1539
sg19
I00
sg20
g21
sg22
I00
sg23
S'Produce:LeftSide'
p1540
sg25
S'sufw'
p1541
sg27
I1
sg28
I00
sg29
S'bunch'
p1542
sg31
F1.0
sba(iIngredients
Ingredient
p1543
(dp1544
g12
g278
sg19
I00
sg20
g21
sg22
I00
sg23
g279
sg25
g280
sg27
I1
sg28
I00
sg29
S'small box'
p1545
sg31
F1.0
sba(iIngredients
Ingredient
p1546
(dp1547
g12
g526
sg19
I00
sg20
g21
sg22
I00
sg23
g527
sg25
g528
sg27
I1
sg28
I00
sg29
S'stalks'
p1548
sg31
F3.0
sba(iIngredients
Ingredient
p1549
(dp1550
g12
g590
sg19
I00
sg20
g21
sg22
I00
sg23
g591
sg25
g592
sg27
I1
sg28
I00
sg29
S'unit'
p1551
sg31
F1.0
sba(iIngredients
Ingredient
p1552
(dp1553
g12
g210
sg19
I00
sg20
g21
sg22
I00
sg23
g211
sg25
g145
sg27
I1
sg28
I01
sg29
S'Tbs'
p1554
sg31
F2.0
sba(iIngredients
Ingredient
p1555
(dp1556
g12
g932
sg19
I00
sg20
g21
sg22
I00
sg23
g933
sg25
g934
sg27
I1
sg28
I01
sg29
S'Tbs'
p1557
sg31
F2.0
sba(iIngredients
Ingredient
p1558
(dp1559
g12
g989
sg19
I00
sg20
g21
sg22
I00
sg23
g990
sg25
g991
sg27
I1
sg28
I01
sg29
S'tsp'
p1560
sg31
F1.0
sba(iIngredients
Ingredient
p1561
(dp1562
g12
g233
sg19
I00
sg20
g21
sg22
I00
sg23
g234
sg25
g145
sg27
I1
sg28
I01
sg29
S'to taste'
p1563
sg31
F1.0
sba(iIngredients
Ingredient
p1564
(dp1565
g12
g862
sg19
I00
sg20
g21
sg22
I00
sg23
g863
sg25
g864
sg27
I1
sg28
I00
sg29
S'small can'
p1566
sg31
F1.0
sba(iIngredients
Ingredient
p1567
(dp1568
g12
g856
sg19
I00
sg20
g21
sg22
I00
sg23
g857
sg25
g858
sg27
I1
sg28
I00
sg29
S'small'
p1569
sg31
F1.0
sba(iIngredients
Ingredient
p1570
(dp1571
g12
g1306
sg19
I00
sg20
g1307
sg22
I01
sg23
g1308
sg25
g1309
sg27
I1
sg28
I00
sg29
S'lb'
p1572
sg31
F3.0
sba(iIngredients
Ingredient
p1573
(dp1574
g12
S'Frozen Peas'
p1575
sg19
I00
sg20
g21
sg22
I00
sg23
S'Frozen:Vegetable'
p1576
sg25
S'sufw'
p1577
sg27
I1
sg28
I00
sg29
S'bag'
p1578
sg31
F1.0
sba(iIngredients
Ingredient
p1579
(dp1580
g12
g272
sg19
I00
sg20
g21
sg22
I00
sg23
g273
sg25
g274
sg27
I1
sg28
I00
sg29
S'units'
p1581
sg31
F4.0
sba(iIngredients
Ingredient
p1582
(dp1583
g12
g801
sg19
I00
sg20
g802
sg22
I00
sg23
g803
sg25
g804
sg27
I1
sg28
I01
sg29
S'unit'
p1584
sg31
F1.0
sbasg76
I01
sg77
(lp1585
g87
ag127
asg90
(lp1586
S'Mak pie\r'
p1587
asg95
Nsg100
I10
sg101
I45
sg103
S'American'
p1588
sg20
g1307
sg106
g962
sba(iRecipe
Recipe
p1589
(dp1590
g7
I4
sg9
I01
sg10
S'Emily'
p1591
sg12
S'Beef Bourgignon'
p1592
sg14
(lp1593
(iIngredients
Ingredient
p1594
(dp1595
g12
g1394
sg19
I00
sg20
g1395
sg22
I01
sg23
g1396
sg25
g1397
sg27
I1
sg28
I00
sg29
S'unit'
p1596
sg31
F1.0
sba(iIngredients
Ingredient
p1597
(dp1598
g12
g457
sg19
I00
sg20
g21
sg22
I00
sg23
g458
sg25
g459
sg27
I1
sg28
I01
sg29
S'to taste'
p1599
sg31
F1.0
sba(iIngredients
Ingredient
p1600
(dp1601
g12
g266
sg19
I00
sg20
g21
sg22
I00
sg23
g267
sg25
g268
sg27
I1
sg28
I00
sg29
S'unit'
p1602
sg31
F1.0
sba(iIngredients
Ingredient
p1603
(dp1604
g12
g51
sg19
I00
sg20
g21
sg22
I00
sg23
g52
sg25
g36
sg27
I1
sg28
I00
sg29
S'cloves'
p1605
sg31
F8.0
sba(iIngredients
Ingredient
p1606
(dp1607
g12
g327
sg19
I00
sg20
g21
sg22
I00
sg23
g328
sg25
g329
sg27
I1
sg28
I01
sg29
S'cups'
p1608
sg31
F2.0
sba(iIngredients
Ingredient
p1609
(dp1610
g12
S'Beef Broth'
p1611
sg19
I00
sg20
g21
sg22
I00
sg23
S'Soup'
p1612
sg25
S'sufw'
p1613
sg27
I1
sg28
I00
sg29
S'small can'
p1614
sg31
F1.0
sba(iIngredients
Ingredient
p1615
(dp1616
g12
g348
sg19
I00
sg20
g21
sg22
I00
sg23
g349
sg25
g350
sg27
I1
sg28
I01
sg29
S'to taste'
p1617
sg31
F1.0
sba(iIngredients
Ingredient
p1618
(dp1619
g12
g1029
sg19
I00
sg20
g21
sg22
I00
sg23
g1030
sg25
g1031
sg27
I1
sg28
I01
sg29
S'to taste'
p1620
sg31
F1.0
sba(iIngredients
Ingredient
p1621
(dp1622
g12
g56
sg19
I00
sg20
g21
sg22
I00
sg23
g57
sg25
g58
sg27
I1
sg28
I01
sg29
S'to taste'
p1623
sg31
F1.0
sba(iIngredients
Ingredient
p1624
(dp1625
g12
S'Bay Leaves'
p1626
sg19
I00
sg20
g21
sg22
I00
sg23
S'Baking'
p1627
sg25
S'sufw'
p1628
sg27
I1
sg28
I01
sg29
S'units'
p1629
sg31
F6.0
sba(iIngredients
Ingredient
p1630
(dp1631
g12
g278
sg19
I00
sg20
g21
sg22
I00
sg23
g279
sg25
g280
sg27
I1
sg28
I00
sg29
S'big box'
p1632
sg31
F1.0
sba(iIngredients
Ingredient
p1633
(dp1634
g12
g272
sg19
I00
sg20
g21
sg22
I00
sg23
g273
sg25
g274
sg27
I1
sg28
I00
sg29
S'units'
p1635
sg31
F3.0
sba(iIngredients
Ingredient
p1636
(dp1637
g12
S'Pearl Onions'
p1638
sg19
I00
sg20
g21
sg22
I00
sg23
S'Frozen:Vegetable'
p1639
sg25
S'sufw'
p1640
sg27
I1
sg28
I00
sg29
S'bag'
p1641
sg31
F1.0
sba(iIngredients
Ingredient
p1642
(dp1643
g12
g871
sg19
I00
sg20
g21
sg22
I00
sg23
g872
sg25
g873
sg27
I1
sg28
I01
sg29
S'Tbs'
p1644
sg31
F2.0
sba(iIngredients
Ingredient
p1645
(dp1646
g12
g783
sg19
I00
sg20
g21
sg22
I00
sg23
g784
sg25
g785
sg27
I1
sg28
I00
sg29
S'bag'
p1647
sg31
F1.0
sba(iIngredients
Ingredient
p1648
(dp1649
g12
g224
sg19
I00
sg20
g21
sg22
I00
sg23
g225
sg25
g226
sg27
I1
sg28
I00
sg29
S'to taste'
p1650
sg31
F1.0
sbasg76
I01
sg77
(lp1651
g127
ag130
ag87
asg90
(lp1652
S'Make bourgignon\r'
p1653
asg95
Nsg100
I10
sg101
I120
sg103
S'French'
p1654
sg20
g1395
sg106
g962
sba(iRecipe
Recipe
p1655
(dp1656
g7
I5
sg9
I00
sg10
S'Emily'
p1657
sg12
S'Lentil and Sausage Soup'
p1658
sg14
(lp1659
(iIngredients
Ingredient
p1660
(dp1661
g12
g862
sg19
I00
sg20
g21
sg22
I00
sg23
g863
sg25
g864
sg27
I1
sg28
I00
sg29
S'big cans'
p1662
sg31
F2.0
sba(iIngredients
Ingredient
p1663
(dp1664
g12
S'Red Lentils'
p1665
sg19
I00
sg20
g21
sg22
I00
sg23
S'International:Indian'
p1666
sg25
S'sufw'
p1667
sg27
I1
sg28
I01
sg29
S'cup'
p1668
sg31
F1.0
sba(iIngredients
Ingredient
p1669
(dp1670
g12
g526
sg19
I00
sg20
g21
sg22
I00
sg23
g527
sg25
g528
sg27
I1
sg28
I00
sg29
S'stalk'
p1671
sg31
F1.0
sba(iIngredients
Ingredient
p1672
(dp1673
g12
g272
sg19
I00
sg20
g21
sg22
I00
sg23
g273
sg25
g274
sg27
I1
sg28
I00
sg29
S'units'
p1674
sg31
F3.0
sba(iIngredients
Ingredient
p1675
(dp1676
g12
g266
sg19
I00
sg20
g21
sg22
I00
sg23
g267
sg25
g268
sg27
I1
sg28
I00
sg29
S'units'
p1677
sg31
F2.0
sba(iIngredients
Ingredient
p1678
(dp1679
g12
g348
sg19
I00
sg20
g21
sg22
I00
sg23
g349
sg25
g350
sg27
I1
sg28
I01
sg29
S'to taste'
p1680
sg31
F1.0
sba(iIngredients
Ingredient
p1681
(dp1682
g12
g397
sg19
I00
sg20
g21
sg22
I00
sg23
g398
sg25
g399
sg27
I1
sg28
I01
sg29
S'to taste'
p1683
sg31
F1.0
sba(iIngredients
Ingredient
p1684
(dp1685
g12
g51
sg19
I00
sg20
g21
sg22
I00
sg23
g52
sg25
g36
sg27
I1
sg28
I00
sg29
S'cloves'
p1686
sg31
F8.0
sba(iIngredients
Ingredient
p1687
(dp1688
g12
g850
sg19
I00
sg20
g21
sg22
I00
sg23
g851
sg25
g852
sg27
I1
sg28
I00
sg29
S'big box'
p1689
sg31
F1.0
sba(iIngredients
Ingredient
p1690
(dp1691
g12
g1349
sg19
I00
sg20
g21
sg22
I00
sg23
g1350
sg25
g1351
sg27
I1
sg28
I00
sg29
S'boxes'
p1692
sg31
F2.0
sba(iIngredients
Ingredient
p1693
(dp1694
g12
g1098
sg19
I00
sg20
g1099
sg22
I00
sg23
g1100
sg25
g1101
sg27
I1
sg28
I00
sg29
S'family pack'
p1695
sg31
F1.0
sbasg76
I01
sg77
(lp1696
g127
asg90
(lp1697
S'Make soup\r'
p1698
asg95
Nsg100
I10
sg101
I120
sg103
S'Soup'
p1699
sg20
g1099
sg106
g962
sba(iRecipe
Recipe
p1700
(dp1701
g7
I4
sg9
I01
sg10
S'Jason'
p1702
sg12
S'Stuffed Squash'
p1703
sg14
(lp1704
(iIngredients
Ingredient
p1705
(dp1706
g12
g210
sg19
I00
sg20
g21
sg22
I00
sg23
g211
sg25
g145
sg27
I1
sg28
I01
sg29
S'Tbs'
p1707
sg31
F2.0
sba(iIngredients
Ingredient
p1708
(dp1709
g12
g1539
sg19
I00
sg20
g21
sg22
I00
sg23
g1540
sg25
g1541
sg27
I1
sg28
I00
sg29
S'units'
p1710
sg31
F6.0
sba(iIngredients
Ingredient
p1711
(dp1712
g12
g856
sg19
I00
sg20
g21
sg22
I00
sg23
g857
sg25
g858
sg27
I1
sg28
I00
sg29
S'cups'
p1713
sg31
F0.25
sba(iIngredients
Ingredient
p1714
(dp1715
g12
g40
sg19
I00
sg20
g21
sg22
I00
sg23
g41
sg25
g36
sg27
I1
sg28
I00
sg29
S'block'
p1716
sg31
F1.0
sba(iIngredients
Ingredient
p1717
(dp1718
g12
S'Romano'
p1719
sg19
I00
sg20
g21
sg22
I00
sg23
S'Cheese'
p1720
sg25
S'sufw'
p1721
sg27
I1
sg28
I00
sg29
S'block'
p1722
sg31
F1.0
sba(iIngredients
Ingredient
p1723
(dp1724
g12
g56
sg19
I00
sg20
g21
sg22
I00
sg23
g57
sg25
g58
sg27
I1
sg28
I01
sg29
S'to taste'
p1725
sg31
F1.0
sba(iIngredients
Ingredient
p1726
(dp1727
g12
g233
sg19
I00
sg20
g21
sg22
I00
sg23
g234
sg25
g145
sg27
I1
sg28
I01
sg29
S'to taste'
p1728
sg31
F1.0
sba(iIngredients
Ingredient
p1729
(dp1730
g12
S'Acorn Squash'
p1731
sg19
I00
sg20
g21
sg22
I00
sg23
S'Produce:Back'
p1732
sg25
S'sufw'
p1733
sg27
I1
sg28
I00
sg29
S'units'
p1734
sg31
F4.0
sba(iIngredients
Ingredient
p1735
(dp1736
g12
g348
sg19
I00
sg20
g21
sg22
I00
sg23
g349
sg25
g350
sg27
I1
sg28
I01
sg29
S'to taste'
p1737
sg31
F1.0
sbasg76
I00
sg77
(lp1738
g87
ag246
asg90
(lp1739
S'Make squash\r'
p1740
asg95
Nsg100
I9
sg101
I60
sg103
S'American'
p1741
sg20
g252
sg106
g962
sba(iRecipe
Recipe
p1742
(dp1743
g7
I5
sg9
I01
sg10
S'Jason'
p1744
sg12
S'African Chicken Stew'
p1745
sg14
(lp1746
(iIngredients
Ingredient
p1747
(dp1748
g12
S'Quinoa'
p1749
sg19
I00
sg20
g21
sg22
I00
sg23
S'Rice'
p1750
sg25
S'sufw'
p1751
sg27
I1
sg28
I01
sg29
S'unit'
p1752
sg31
F1.0
sba(iIngredients
Ingredient
p1753
(dp1754
g12
g1306
sg19
I00
sg20
g1307
sg22
I01
sg23
g1308
sg25
g1309
sg27
I1
sg28
I00
sg29
S'family pack'
p1755
sg31
F1.0
sba(iIngredients
Ingredient
p1756
(dp1757
g12
g333
sg19
I00
sg20
g21
sg22
I00
sg23
g334
sg25
g335
sg27
I1
sg28
I00
sg29
S'cans'
p1758
sg31
F2.0
sba(iIngredients
Ingredient
p1759
(dp1760
g12
S'Chickpeas'
p1761
sg19
I00
sg20
g21
sg22
I00
sg23
S'International:Canned'
p1762
sg25
S'sufw'
p1763
sg27
I1
sg28
I00
sg29
S'cans'
p1764
sg31
F2.0
sba(iIngredients
Ingredient
p1765
(dp1766
g12
S'Zucchini'
p1767
sg19
I00
sg20
g21
sg22
I00
sg23
S'Produce:Middle'
p1768
sg25
S'sufw'
p1769
sg27
I1
sg28
I00
sg29
S'units'
p1770
sg31
F2.0
sba(iIngredients
Ingredient
p1771
(dp1772
g12
S'Yellow Squash'
p1773
sg19
I00
sg20
g21
sg22
I00
sg23
S'Produce:Middle'
p1774
sg25
S'sufw'
p1775
sg27
I1
sg28
I00
sg29
S'units'
p1776
sg31
F2.0
sba(iIngredients
Ingredient
p1777
(dp1778
g12
g590
sg19
I00
sg20
g21
sg22
I00
sg23
g591
sg25
g592
sg27
I1
sg28
I00
sg29
S'units'
p1779
sg31
F2.0
sba(iIngredients
Ingredient
p1780
(dp1781
g12
S'Anaheim Peppers'
p1782
sg19
I00
sg20
g21
sg22
I00
sg23
S'Produce:LeftSide'
p1783
sg25
S'sufw'
p1784
sg27
I1
sg28
I00
sg29
S'units'
p1785
sg31
F2.0
sba(iIngredients
Ingredient
p1786
(dp1787
g12
S'Cinnamon'
p1788
sg19
I00
sg20
g21
sg22
I00
sg23
S'Baking'
p1789
sg25
S'sufw'
p1790
sg27
I1
sg28
I01
sg29
S'to taste'
p1791
sg31
F1.0
sba(iIngredients
Ingredient
p1792
(dp1793
g12
g1376
sg19
I00
sg20
g21
sg22
I00
sg23
g1377
sg25
g1378
sg27
I1
sg28
I01
sg29
S'to taste'
p1794
sg31
F1.0
sba(iIngredients
Ingredient
p1795
(dp1796
g12
g56
sg19
I00
sg20
g21
sg22
I00
sg23
g57
sg25
g58
sg27
I1
sg28
I01
sg29
S'to taste'
p1797
sg31
F1.0
sba(iIngredients
Ingredient
p1798
(dp1799
g12
g233
sg19
I00
sg20
g21
sg22
I00
sg23
g234
sg25
g145
sg27
I1
sg28
I01
sg29
S'to taste'
p1800
sg31
F1.0
sba(iIngredients
Ingredient
p1801
(dp1802
g12
g457
sg19
I00
sg20
g21
sg22
I00
sg23
g458
sg25
g459
sg27
I1
sg28
I01
sg29
S'to taste'
p1803
sg31
F1.0
sba(iIngredients
Ingredient
p1804
(dp1805
g12
g614
sg19
I00
sg20
g21
sg22
I00
sg23
g615
sg25
g616
sg27
I1
sg28
I01
sg29
S'to taste'
p1806
sg31
F1.0
sba(iIngredients
Ingredient
p1807
(dp1808
g12
g51
sg19
I00
sg20
g21
sg22
I00
sg23
g52
sg25
g36
sg27
I1
sg28
I00
sg29
S'cloves'
p1809
sg31
F6.0
sbasg76
I01
sg77
(lp1810
g127
asg90
(lp1811
S'Make stew\r'
p1812
asg95
Nsg100
I7
sg101
I60
sg103
S'African'
p1813
sg20
g1307
sg106
g962
sba(iRecipe
Recipe
p1814
(dp1815
g7
I5
sg9
I01
sg10
S'Emily'
p1816
sg12
S'Kale and Mushroom Lasagne'
p1817
sg14
(lp1818
(iIngredients
Ingredient
p1819
(dp1820
g12
g526
sg19
I00
sg20
g21
sg22
I00
sg23
g527
sg25
g528
sg27
I1
sg28
I00
sg29
S'stalks'
p1821
sg31
F4.0
sba(iIngredients
Ingredient
p1822
(dp1823
g12
g210
sg19
I00
sg20
g21
sg22
I00
sg23
g211
sg25
g145
sg27
I1
sg28
I01
sg29
S'Tbs'
p1824
sg31
F2.0
sba(iIngredients
Ingredient
p1825
(dp1826
g12
g850
sg19
I00
sg20
g21
sg22
I00
sg23
g851
sg25
g852
sg27
I1
sg28
I00
sg29
S'large box'
p1827
sg31
F1.0
sba(iIngredients
Ingredient
p1828
(dp1829
g12
g56
sg19
I00
sg20
g21
sg22
I00
sg23
g57
sg25
g58
sg27
I1
sg28
I01
sg29
S'to taste'
p1830
sg31
F1.0
sba(iIngredients
Ingredient
p1831
(dp1832
g12
g233
sg19
I00
sg20
g21
sg22
I00
sg23
g234
sg25
g145
sg27
I1
sg28
I01
sg29
S'to taste'
p1833
sg31
F1.0
sba(iIngredients
Ingredient
p1834
(dp1835
g12
g51
sg19
I00
sg20
g21
sg22
I00
sg23
g52
sg25
g36
sg27
I1
sg28
I00
sg29
S'cloves'
p1836
sg31
F2.0
sba(iIngredients
Ingredient
p1837
(dp1838
g12
g348
sg19
I00
sg20
g21
sg22
I00
sg23
g349
sg25
g350
sg27
I1
sg28
I01
sg29
S'to taste'
p1839
sg31
F1.0
sba(iIngredients
Ingredient
p1840
(dp1841
g12
S'Pasta Lasagne'
p1842
sg19
I00
sg20
g21
sg22
I00
sg23
S'Pasta'
p1843
sg25
S'sufw'
p1844
sg27
I1
sg28
I00
sg29
S'lb'
p1845
sg31
F1.0
sba(iIngredients
Ingredient
p1846
(dp1847
g12
g40
sg19
I00
sg20
g21
sg22
I00
sg23
g41
sg25
g36
sg27
I1
sg28
I00
sg29
S'block'
p1848
sg31
F1.0
sba(iIngredients
Ingredient
p1849
(dp1850
g12
g457
sg19
I00
sg20
g21
sg22
I00
sg23
g458
sg25
g459
sg27
I1
sg28
I01
sg29
S'to taste'
p1851
sg31
F1.0
sba(iIngredients
Ingredient
p1852
(dp1853
g12
g224
sg19
I00
sg20
g21
sg22
I00
sg23
g225
sg25
g226
sg27
I1
sg28
I00
sg29
S'cups'
p1854
sg31
F3.0
sba(iIngredients
Ingredient
p1855
(dp1856
g12
g1626
sg19
I00
sg20
g21
sg22
I00
sg23
g1627
sg25
g1628
sg27
I1
sg28
I01
sg29
S'unit'
p1857
sg31
F1.0
sba(iIngredients
Ingredient
p1858
(dp1859
g12
g266
sg19
I00
sg20
g21
sg22
I00
sg23
g267
sg25
g268
sg27
I1
sg28
I00
sg29
S'unit'
p1860
sg31
F1.0
sba(iIngredients
Ingredient
p1861
(dp1862
g12
g871
sg19
I00
sg20
g21
sg22
I00
sg23
g872
sg25
g873
sg27
I1
sg28
I01
sg29
S'Tbs'
p1863
sg31
F6.5
sbasg76
I01
sg77
(lp1864
g87
ag246
asg90
(lp1865
S'Make Lasagne\r'
p1866
asg95
Nsg100
I9
sg101
I120
sg103
S'Italian'
p1867
sg20
g252
sg106
g962
sba(iRecipe
Recipe
p1868
(dp1869
g7
I4
sg9
I00
sg10
S'Jason'
p1870
sg12
S'Chickpea Chard and Porcini Soup'
p1871
sg14
(lp1872
(iIngredients
Ingredient
p1873
(dp1874
g12
g850
sg19
I00
sg20
g21
sg22
I00
sg23
g851
sg25
g852
sg27
I1
sg28
I00
sg29
S'small'
p1875
sg31
F1.0
sba(iIngredients
Ingredient
p1876
(dp1877
g12
g210
sg19
I00
sg20
g21
sg22
I00
sg23
g211
sg25
g145
sg27
I1
sg28
I01
sg29
S'Tbs'
p1878
sg31
F2.0
sba(iIngredients
Ingredient
p1879
(dp1880
g12
g457
sg19
I00
sg20
g21
sg22
I00
sg23
g458
sg25
g459
sg27
I1
sg28
I01
sg29
S'Tbs'
p1881
sg31
F3.0
sba(iIngredients
Ingredient
p1882
(dp1883
g12
g266
sg19
I00
sg20
g21
sg22
I00
sg23
g267
sg25
g268
sg27
I1
sg28
I00
sg29
S'unit'
p1884
sg31
F1.0
sba(iIngredients
Ingredient
p1885
(dp1886
g12
g51
sg19
I00
sg20
g21
sg22
I00
sg23
g52
sg25
g36
sg27
I1
sg28
I00
sg29
S'cloves'
p1887
sg31
F2.0
sba(iIngredients
Ingredient
p1888
(dp1889
g12
g290
sg19
I00
sg20
g21
sg22
I00
sg23
g291
sg25
g292
sg27
I1
sg28
I00
sg29
S'cups'
p1890
sg31
F1.5
sba(iIngredients
Ingredient
p1891
(dp1892
g12
S'Canned Plum Tomatoes'
p1893
sg19
I00
sg20
g21
sg22
I00
sg23
S'Tomato'
p1894
sg25
S'sufw'
p1895
sg27
I1
sg28
I00
sg29
S'can'
p1896
sg31
F1.0
sba(iIngredients
Ingredient
p1897
(dp1898
g12
g1761
sg19
I00
sg20
g21
sg22
I00
sg23
g1762
sg25
g1763
sg27
I1
sg28
I00
sg29
S'can'
p1899
sg31
F1.0
sba(iIngredients
Ingredient
p1900
(dp1901
g12
g1020
sg19
I00
sg20
g21
sg22
I00
sg23
g1021
sg25
g1022
sg27
I1
sg28
I01
sg29
S'to taste'
p1902
sg31
F1.0
sba(iIngredients
Ingredient
p1903
(dp1904
g12
S'Swiss Chard'
p1905
sg19
I01
sg20
g21
sg22
I00
sg23
S'Produce:Herbs'
p1906
sg25
S'sufw'
p1907
sg27
I1
sg28
I00
sg29
S'ounces'
p1908
sg31
F10.0
sba(iIngredients
Ingredient
p1909
(dp1910
g12
g56
sg19
I00
sg20
g21
sg22
I00
sg23
g57
sg25
g58
sg27
I1
sg28
I01
sg29
S'to taste'
p1911
sg31
F1.0
sba(iIngredients
Ingredient
p1912
(dp1913
g12
g233
sg19
I00
sg20
g21
sg22
I00
sg23
g234
sg25
g145
sg27
I1
sg28
I01
sg29
S'to taste'
p1914
sg31
F1.0
sba(iIngredients
Ingredient
p1915
(dp1916
g12
g40
sg19
I00
sg20
g21
sg22
I00
sg23
g41
sg25
g36
sg27
I1
sg28
I00
sg29
S'block'
p1917
sg31
F1.0
sbasg76
I00
sg77
(lp1918
g87
asg90
(lp1919
S'Make soup\r'
p1920
asg95
Nsg100
I2
sg101
I45
sg103
S'Soup'
p1921
sg20
g252
sg106
g962
sba(iRecipe
Recipe
p1922
(dp1923
g7
I4
sg9
I00
sg10
S'Jason'
p1924
sg12
S'Mushroom Stoup'
p1925
sg14
(lp1926
(iIngredients
Ingredient
p1927
(dp1928
g12
g850
sg19
I00
sg20
g21
sg22
I00
sg23
g851
sg25
g852
sg27
I1
sg28
I00
sg29
S'large box'
p1929
sg31
F1.0
sba(iIngredients
Ingredient
p1930
(dp1931
g12
g210
sg19
I00
sg20
g21
sg22
I00
sg23
g211
sg25
g145
sg27
I1
sg28
I01
sg29
S'Tbs'
p1932
sg31
F2.0
sba(iIngredients
Ingredient
p1933
(dp1934
g12
g457
sg19
I00
sg20
g21
sg22
I00
sg23
g458
sg25
g459
sg27
I1
sg28
I01
sg29
S'Tbs'
p1935
sg31
F1.0
sba(iIngredients
Ingredient
p1936
(dp1937
g12
g266
sg19
I00
sg20
g21
sg22
I00
sg23
g267
sg25
g268
sg27
I1
sg28
I00
sg29
S'units'
p1938
sg31
F2.0
sba(iIngredients
Ingredient
p1939
(dp1940
g12
g272
sg19
I00
sg20
g21
sg22
I00
sg23
g273
sg25
g274
sg27
I1
sg28
I00
sg29
S'units'
p1941
sg31
F2.0
sba(iIngredients
Ingredient
p1942
(dp1943
g12
g526
sg19
I00
sg20
g21
sg22
I00
sg23
g527
sg25
g528
sg27
I1
sg28
I00
sg29
S'unit'
p1944
sg31
F1.0
sba(iIngredients
Ingredient
p1945
(dp1946
g12
g51
sg19
I00
sg20
g21
sg22
I00
sg23
g52
sg25
g36
sg27
I1
sg28
I00
sg29
S'cloves'
p1947
sg31
F4.0
sba(iIngredients
Ingredient
p1948
(dp1949
g12
g862
sg19
I00
sg20
g21
sg22
I00
sg23
g863
sg25
g864
sg27
I1
sg28
I00
sg29
S'quart'
p1950
sg31
F1.0
sba(iIngredients
Ingredient
p1951
(dp1952
g12
g56
sg19
I00
sg20
g21
sg22
I00
sg23
g57
sg25
g58
sg27
I1
sg28
I01
sg29
S'to taste'
p1953
sg31
F1.0
sba(iIngredients
Ingredient
p1954
(dp1955
g12
g233
sg19
I00
sg20
g21
sg22
I00
sg23
g234
sg25
g145
sg27
I1
sg28
I01
sg29
S'to taste'
p1956
sg31
F1.0
sba(iIngredients
Ingredient
p1957
(dp1958
g12
g892
sg19
I00
sg20
g21
sg22
I00
sg23
g893
sg25
g894
sg27
I1
sg28
I01
sg29
S'to taste'
p1959
sg31
F1.0
sba(iIngredients
Ingredient
p1960
(dp1961
g12
g871
sg19
I00
sg20
g21
sg22
I00
sg23
g872
sg25
g873
sg27
I1
sg28
I01
sg29
S'cups'
p1962
sg31
F1.5
sba(iIngredients
Ingredient
p1963
(dp1964
g12
S'Crisco'
p1965
sg19
I00
sg20
g21
sg22
I00
sg23
S'Baking'
p1966
sg25
S'sufw'
p1967
sg27
I1
sg28
I01
sg29
S'cups'
p1968
sg31
F0.5
sba(iIngredients
Ingredient
p1969
(dp1970
g12
g348
sg19
I00
sg20
g21
sg22
I00
sg23
g349
sg25
g350
sg27
I1
sg28
I01
sg29
S'to taste'
p1971
sg31
F1.0
sbasg76
I01
sg77
(lp1972
sg90
(lp1973
S'Make soup\r'
p1974
asg95
Nsg100
I3
sg101
I80
sg103
S'Soup'
p1975
sg20
g252
sg106
g962
sba(iRecipe
Recipe
p1976
(dp1977
g7
I3
sg9
I01
sg10
S'Jason'
p1978
sg12
S'Vegeree'
p1979
sg14
(lp1980
(iIngredients
Ingredient
p1981
(dp1982
g12
g266
sg19
I00
sg20
g21
sg22
I00
sg23
g267
sg25
g268
sg27
I1
sg28
I00
sg29
S'units'
p1983
sg31
F3.0
sba(iIngredients
Ingredient
p1984
(dp1985
g12
S'Eggplant'
p1986
sg19
I00
sg20
g21
sg22
I00
sg23
S'Produce:Middle'
p1987
sg25
S'sufw'
p1988
sg27
I1
sg28
I00
sg29
S'large'
p1989
sg31
F1.0
sba(iIngredients
Ingredient
p1990
(dp1991
g12
g1767
sg19
I00
sg20
g21
sg22
I00
sg23
g1768
sg25
g1769
sg27
I1
sg28
I00
sg29
S'units'
p1992
sg31
F2.0
sba(iIngredients
Ingredient
p1993
(dp1994
g12
g457
sg19
I00
sg20
g21
sg22
I00
sg23
g458
sg25
g459
sg27
I1
sg28
I01
sg29
S'Tbs'
p1995
sg31
F3.0
sba(iIngredients
Ingredient
p1996
(dp1997
g12
S'Garam Masala'
p1998
sg19
I00
sg20
g21
sg22
I00
sg23
S'Baking'
p1999
sg25
S'sufw'
p2000
sg27
I1
sg28
I01
sg29
S'to taste'
p2001
sg31
F1.0
sba(iIngredients
Ingredient
p2002
(dp2003
g12
g1376
sg19
I00
sg20
g21
sg22
I00
sg23
g1377
sg25
g1378
sg27
I1
sg28
I01
sg29
S'to taste'
p2004
sg31
F1.0
sba(iIngredients
Ingredient
p2005
(dp2006
g12
g56
sg19
I00
sg20
g21
sg22
I00
sg23
g57
sg25
g58
sg27
I1
sg28
I01
sg29
S'to taste'
p2007
sg31
F1.0
sba(iIngredients
Ingredient
p2008
(dp2009
g12
g233
sg19
I00
sg20
g21
sg22
I00
sg23
g234
sg25
g145
sg27
I1
sg28
I01
sg29
S'to taste'
p2010
sg31
F1.0
sba(iIngredients
Ingredient
p2011
(dp2012
g12
g538
sg19
I00
sg20
g21
sg22
I00
sg23
g539
sg25
g540
sg27
I1
sg28
I01
sg29
S'cups'
p2013
sg31
F1.5
sba(iIngredients
Ingredient
p2014
(dp2015
g12
g801
sg19
I00
sg20
g802
sg22
I00
sg23
g803
sg25
g804
sg27
I1
sg28
I01
sg29
S'units'
p2016
sg31
F4.0
sbasg76
I01
sg77
(lp2017
sg90
(lp2018
S'Make food\r'
p2019
asg95
Nsg100
I3
sg101
I40
sg103
S'Indian'
p2020
sg20
g802
sg106
g962
sba(iRecipe
Recipe
p2021
(dp2022
g7
I4
sg9
I01
sg10
S'Emily'
p2023
sg12
S'Stuffed Peppers'
p2024
sg14
(lp2025
(iIngredients
Ingredient
p2026
(dp2027
g12
g783
sg19
I00
sg20
g21
sg22
I00
sg23
g784
sg25
g785
sg27
I1
sg28
I00
sg29
S'bag'
p2028
sg31
F1.0
sba(iIngredients
Ingredient
p2029
(dp2030
g12
g590
sg19
I00
sg20
g21
sg22
I00
sg23
g591
sg25
g592
sg27
I1
sg28
I00
sg29
S'units'
p2031
sg31
F12.0
sba(iIngredients
Ingredient
p2032
(dp2033
g12
g457
sg19
I00
sg20
g21
sg22
I00
sg23
g458
sg25
g459
sg27
I1
sg28
I01
sg29
S'Tbs'
p2034
sg31
F3.0
sba(iIngredients
Ingredient
p2035
(dp2036
g12
S'Feta Cheese'
p2037
sg19
I00
sg20
g21
sg22
I00
sg23
S'Cheese'
p2038
sg25
S'sufw'
p2039
sg27
I1
sg28
I00
sg29
S'container'
p2040
sg31
F1.0
sba(iIngredients
Ingredient
p2041
(dp2042
g12
g18
sg19
I00
sg20
g21
sg22
I00
sg23
g24
sg25
g26
sg27
I1
sg28
I00
sg29
S'to taste'
p2043
sg31
F1.0
sba(iIngredients
Ingredient
p2044
(dp2045
g12
g40
sg19
I00
sg20
g21
sg22
I00
sg23
g41
sg25
g36
sg27
I1
sg28
I00
sg29
S'block'
p2046
sg31
F1.0
sba(iIngredients
Ingredient
p2047
(dp2048
g12
g51
sg19
I00
sg20
g21
sg22
I00
sg23
g52
sg25
g36
sg27
I1
sg28
I00
sg29
S'clove'
p2049
sg31
F1.0
sba(iIngredients
Ingredient
p2050
(dp2051
g12
g56
sg19
I00
sg20
g21
sg22
I00
sg23
g57
sg25
g58
sg27
I1
sg28
I01
sg29
S'to taste'
p2052
sg31
F1.0
sba(iIngredients
Ingredient
p2053
(dp2054
g12
g45
sg19
I00
sg20
g21
sg22
I00
sg23
g46
sg25
g47
sg27
I1
sg28
I00
sg29
S'to taste'
p2055
sg31
F1.0
sbasg76
I00
sg77
(lp2056
g87
ag79
asg90
(lp2057
S'Make peppers\r'
p2058
asg95
Nsg100
I7
sg101
I30
sg103
S'American'
p2059
sg20
g252
sg106
g962
sba(iRecipe
Recipe
p2060
(dp2061
g7
I4
sg9
I01
sg10
S'Jason'
p2062
sg12
S'Ratatouille'
p2063
sg14
(lp2064
(iIngredients
Ingredient
p2065
(dp2066
g12
g266
sg19
I00
sg20
g21
sg22
I00
sg23
g267
sg25
g268
sg27
I1
sg28
I00
sg29
S'units'
p2067
sg31
F2.0
sba(iIngredients
Ingredient
p2068
(dp2069
g12
g590
sg19
I00
sg20
g21
sg22
I00
sg23
g591
sg25
g592
sg27
I1
sg28
I00
sg29
S'units'
p2070
sg31
F2.0
sba(iIngredients
Ingredient
p2071
(dp2072
g12
g1767
sg19
I00
sg20
g21
sg22
I00
sg23
g1768
sg25
g1769
sg27
I1
sg28
I00
sg29
S'units'
p2073
sg31
F2.0
sba(iIngredients
Ingredient
p2074
(dp2075
g12
g1986
sg19
I00
sg20
g21
sg22
I00
sg23
g1987
sg25
g1988
sg27
I1
sg28
I00
sg29
S'unit'
p2076
sg31
F1.0
sba(iIngredients
Ingredient
p2077
(dp2078
g12
g457
sg19
I00
sg20
g21
sg22
I00
sg23
g458
sg25
g459
sg27
I1
sg28
I01
sg29
S'to taste'
p2079
sg31
F1.0
sba(iIngredients
Ingredient
p2080
(dp2081
g12
g333
sg19
I00
sg20
g21
sg22
I00
sg23
g334
sg25
g335
sg27
I1
sg28
I00
sg29
S'Can'
p2082
sg31
F1.0
sba(iIngredients
Ingredient
p2083
(dp2084
g12
g56
sg19
I00
sg20
g21
sg22
I00
sg23
g57
sg25
g58
sg27
I1
sg28
I01
sg29
S'to taste'
p2085
sg31
F1.0
sba(iIngredients
Ingredient
p2086
(dp2087
g12
g233
sg19
I00
sg20
g21
sg22
I00
sg23
g234
sg25
g145
sg27
I1
sg28
I01
sg29
S'to taste'
p2088
sg31
F1.0
sbasg76
I00
sg77
(lp2089
sg90
(lp2090
S'Make Ratatouille\r'
p2091
asg95
Nsg100
I5
sg101
I20
sg103
S'Snack'
p2092
sg20
g252
sg106
g962
sba(iRecipe
Recipe
p2093
(dp2094
g7
I4
sg9
I01
sg10
S'Jason'
p2095
sg12
S'Spanish Sauce'
p2096
sg14
(lp2097
(iIngredients
Ingredient
p2098
(dp2099
g12
g1306
sg19
I00
sg20
g1307
sg22
I01
sg23
g1308
sg25
g1309
sg27
I1
sg28
I00
sg29
S'lb'
p2100
sg31
F2.0
sba(iIngredients
Ingredient
p2101
(dp2102
g12
S'Raw Sausage'
p2103
sg19
I00
sg20
S'Pork'
p2104
sg22
I00
sg23
S'Meat'
p2105
sg25
S'sufw'
p2106
sg27
I1
sg28
I00
sg29
S'family pack'
p2107
sg31
F1.0
sba(iIngredients
Ingredient
p2108
(dp2109
g12
g590
sg19
I00
sg20
g21
sg22
I00
sg23
g591
sg25
g592
sg27
I1
sg28
I00
sg29
S'units'
p2110
sg31
F2.0
sba(iIngredients
Ingredient
p2111
(dp2112
g12
g266
sg19
I00
sg20
g21
sg22
I00
sg23
g267
sg25
g268
sg27
I1
sg28
I00
sg29
S'units'
p2113
sg31
F2.0
sba(iIngredients
Ingredient
p2114
(dp2115
g12
g51
sg19
I00
sg20
g21
sg22
I00
sg23
g52
sg25
g36
sg27
I1
sg28
I00
sg29
S'cloves'
p2116
sg31
F4.0
sba(iIngredients
Ingredient
p2117
(dp2118
g12
S'Oregano'
p2119
sg19
I00
sg20
g21
sg22
I00
sg23
S'Baking'
p2120
sg25
S'sufw'
p2121
sg27
I1
sg28
I01
sg29
S'to taste'
p2122
sg31
F1.0
sba(iIngredients
Ingredient
p2123
(dp2124
g12
g169
sg19
I00
sg20
g21
sg22
I00
sg23
g170
sg25
g145
sg27
I1
sg28
I01
sg29
S'to taste'
p2125
sg31
F1.0
sba(iIngredients
Ingredient
p2126
(dp2127
g12
g241
sg19
I00
sg20
g21
sg22
I00
sg23
g242
sg25
g243
sg27
I1
sg28
I00
sg29
S'lb'
p2128
sg31
F2.0
sba(iIngredients
Ingredient
p2129
(dp2130
g12
S'Artichoke Hearts'
p2131
sg19
I00
sg20
g21
sg22
I00
sg23
S'Pasta'
p2132
sg25
S'sufw'
p2133
sg27
I1
sg28
I00
sg29
S'can'
p2134
sg31
F1.0
sba(iIngredients
Ingredient
p2135
(dp2136
g12
S'Capers'
p2137
sg19
I00
sg20
g21
sg22
I00
sg23
S'Pasta'
p2138
sg25
S'sufw'
p2139
sg27
I1
sg28
I00
sg29
S'to taste'
p2140
sg31
F1.0
sba(iIngredients
Ingredient
p2141
(dp2142
g12
S'Corn Starch'
p2143
sg19
I00
sg20
g21
sg22
I00
sg23
S'Baking'
p2144
sg25
S'sufw'
p2145
sg27
I1
sg28
I01
sg29
S'to taste'
p2146
sg31
F1.0
sbasg76
I01
sg77
(lp2147
g127
ag417
asg90
(lp2148
S'Make Food\r'
p2149
asg95
Nsg100
I4
sg101
I90
sg103
S'Cajun'
p2150
sg20
g1307
sg106
g962
sba(iRecipe
Recipe
p2151
(dp2152
g7
I3
sg9
I01
sg10
S'Jason'
p2153
sg12
S'Duck Dynasty'
p2154
sg14
(lp2155
(iIngredients
Ingredient
p2156
(dp2157
g12
S'Plums'
p2158
sg19
I00
sg20
g21
sg22
I00
sg23
S'Produce:Middle'
p2159
sg25
S'u'
p2160
sg27
I1
sg28
I00
sg29
S'units'
p2161
sg31
F12.0
sba(iIngredients
Ingredient
p2162
(dp2163
g12
g970
sg19
I00
sg20
g971
sg22
I01
sg23
g972
sg25
g973
sg27
I1
sg28
I00
sg29
S'unit'
p2164
sg31
F1.0
sba(iIngredients
Ingredient
p2165
(dp2166
g12
S'Hard Cheese'
p2167
sg19
I00
sg20
g21
sg22
I00
sg23
S'Cheese'
p2168
sg25
S'sufw'
p2169
sg27
I1
sg28
I00
sg29
S'block'
p2170
sg31
F1.0
sba(iIngredients
Ingredient
p2171
(dp2172
g12
S'Pasta Rotini'
p2173
sg19
I00
sg20
g21
sg22
I00
sg23
S'Pasta'
p2174
sg25
S'sufw'
p2175
sg27
I1
sg28
I00
sg29
S'lb'
p2176
sg31
F1.0
sba(iIngredients
Ingredient
p2177
(dp2178
g12
g187
sg19
I00
sg20
g21
sg22
I00
sg23
g188
sg25
g145
sg27
I1
sg28
I01
sg29
S'lb'
p2179
sg31
F1.0
sba(iIngredients
Ingredient
p2180
(dp2181
g12
g457
sg19
I00
sg20
g21
sg22
I00
sg23
g458
sg25
g459
sg27
I1
sg28
I01
sg29
S'to taste'
p2182
sg31
F1.0
sba(iIngredients
Ingredient
p2183
(dp2184
g12
g56
sg19
I00
sg20
g21
sg22
I00
sg23
g57
sg25
g58
sg27
I1
sg28
I01
sg29
S'to taste'
p2185
sg31
F1.0
sba(iIngredients
Ingredient
p2186
(dp2187
g12
g233
sg19
I00
sg20
g21
sg22
I00
sg23
g234
sg25
g145
sg27
I1
sg28
I01
sg29
S'to taste'
p2188
sg31
F1.0
sbasg76
I01
sg77
(lp2189
g127
asg90
(lp2190
S'Make pasta\r'
p2191
asg95
Nsg100
I4
sg101
I30
sg103
S'Italian'
p2192
sg20
g971
sg106
g962
sba(iRecipe
Recipe
p2193
(dp2194
g7
I3
sg9
I01
sg10
S'Emily'
p2195
sg12
S'Creamy Mushroom Wine Sauce'
p2196
sg14
(lp2197
(iIngredients
Ingredient
p2198
(dp2199
g12
g856
sg19
I00
sg20
g21
sg22
I00
sg23
g857
sg25
g858
sg27
I1
sg28
I00
sg29
S'unit'
p2200
sg31
F1.0
sba(iIngredients
Ingredient
p2201
(dp2202
g12
S'White Wine'
p2203
sg19
I00
sg20
g21
sg22
I00
sg23
S'Alcohol'
p2204
sg25
S'sufw'
p2205
sg27
I1
sg28
I00
sg29
S'cup'
p2206
sg31
F1.0
sba(iIngredients
Ingredient
p2207
(dp2208
g12
g2167
sg19
I00
sg20
g21
sg22
I00
sg23
g2168
sg25
g2169
sg27
I1
sg28
I00
sg29
S'block'
p2209
sg31
F1.0
sba(iIngredients
Ingredient
p2210
(dp2211
g12
S'Pasta Farfalline'
p2212
sg19
I00
sg20
g21
sg22
I00
sg23
S'Pasta'
p2213
sg25
S'sufw'
p2214
sg27
I1
sg28
I00
sg29
S'lb'
p2215
sg31
F1.0
sba(iIngredients
Ingredient
p2216
(dp2217
g12
S'Mixed Mushrooms'
p2218
sg19
I00
sg20
g21
sg22
I00
sg23
S'Produce:LeftSide'
p2219
sg25
S'sufw'
p2220
sg27
I1
sg28
I00
sg29
S'box'
p2221
sg31
F1.0
sba(iIngredients
Ingredient
p2222
(dp2223
g12
g1461
sg19
I00
sg20
g21
sg22
I00
sg23
g1462
sg25
g1463
sg27
I1
sg28
I01
sg29
S'to taste'
p2224
sg31
F1.0
sbasg76
I01
sg77
(lp2225
g87
ag246
asg90
(lp2226
S'Make pasta\r'
p2227
asg95
Nsg100
I7
sg101
I40
sg103
S'Snack'
p2228
sg20
g252
sg106
g962
sba(iRecipe
Recipe
p2229
(dp2230
g7
I2
sg9
I01
sg10
S'Emily'
p2231
sg12
S'Empanadas'
p2232
sg14
(lp2233
(iIngredients
Ingredient
p2234
(dp2235
g12
g970
sg19
I00
sg20
g971
sg22
I01
sg23
g972
sg25
g973
sg27
I1
sg28
I00
sg29
S'unit'
p2236
sg31
F1.0
sba(iIngredients
Ingredient
p2237
(dp2238
g12
g668
sg19
I00
sg20
g21
sg22
I00
sg23
g669
sg25
g670
sg27
I1
sg28
I01
sg29
S'bag'
p2239
sg31
F1.0
sba(iIngredients
Ingredient
p2240
(dp2241
g12
g932
sg19
I00
sg20
g21
sg22
I00
sg23
g933
sg25
g934
sg27
I1
sg28
I01
sg29
S'cup'
p2242
sg31
F2.0
sba(iIngredients
Ingredient
p2243
(dp2244
g12
g1437
sg19
I00
sg20
g21
sg22
I00
sg23
g1438
sg25
g1439
sg27
I1
sg28
I01
sg29
S' cups'
p2245
sg31
F0.5
sba(iIngredients
Ingredient
p2246
(dp2247
g12
g56
sg19
I00
sg20
g21
sg22
I00
sg23
g57
sg25
g58
sg27
I1
sg28
I01
sg29
S'to taste'
p2248
sg31
F1.0
sba(iIngredients
Ingredient
p2249
(dp2250
g12
g1965
sg19
I00
sg20
g21
sg22
I00
sg23
g1966
sg25
g1967
sg27
I1
sg28
I01
sg29
S'cups'
p2251
sg31
F0.67
sbasg76
I00
sg77
(lp2252
g87
ag127
asg90
(lp2253
S'Make empanadas\r'
p2254
asg95
Nsg100
I7
sg101
I30
sg103
S'Mexican'
p2255
sg20
g971
sg106
g962
sba(iRecipe
Recipe
p2256
(dp2257
g7
I5
sg9
I00
sg10
S'Emily'
p2258
sg12
S'Veggie Burritos'
p2259
sg14
(lp2260
(iIngredients
Ingredient
p2261
(dp2262
g12
g801
sg19
I00
sg20
g802
sg22
I00
sg23
g803
sg25
g804
sg27
I1
sg28
I01
sg29
S'units'
p2263
sg31
F12.0
sba(iIngredients
Ingredient
p2264
(dp2265
g12
g783
sg19
I00
sg20
g21
sg22
I00
sg23
g784
sg25
g785
sg27
I1
sg28
I00
sg29
S'units'
p2266
sg31
F2.0
sba(iIngredients
Ingredient
p2267
(dp2268
g12
g266
sg19
I00
sg20
g21
sg22
I00
sg23
g267
sg25
g268
sg27
I1
sg28
I00
sg29
S'unit'
p2269
sg31
F1.0
sba(iIngredients
Ingredient
p2270
(dp2271
g12
g397
sg19
I00
sg20
g21
sg22
I00
sg23
g398
sg25
g399
sg27
I1
sg28
I01
sg29
S'to taste'
p2272
sg31
F1.0
sba(iIngredients
Ingredient
p2273
(dp2274
g12
g56
sg19
I00
sg20
g21
sg22
I00
sg23
g57
sg25
g58
sg27
I1
sg28
I01
sg29
S'to taste'
p2275
sg31
F1.0
sba(iIngredients
Ingredient
p2276
(dp2277
g12
g233
sg19
I00
sg20
g21
sg22
I00
sg23
g234
sg25
g145
sg27
I1
sg28
I01
sg29
S'to taste'
p2278
sg31
F1.0
sba(iIngredients
Ingredient
p2279
(dp2280
g12
g1491
sg19
I00
sg20
g21
sg22
I00
sg23
g1492
sg25
g1493
sg27
I1
sg28
I00
sg29
S'units'
p2281
sg31
F4.0
sba(iIngredients
Ingredient
p2282
(dp2283
g12
g590
sg19
I00
sg20
g21
sg22
I00
sg23
g591
sg25
g592
sg27
I1
sg28
I00
sg29
S'units'
p2284
sg31
F2.0
sba(iIngredients
Ingredient
p2285
(dp2286
g12
g563
sg19
I00
sg20
g21
sg22
I00
sg23
g564
sg25
g565
sg27
I1
sg28
I00
sg29
S'can'
p2287
sg31
F1.0
sba(iIngredients
Ingredient
p2288
(dp2289
g12
g668
sg19
I00
sg20
g21
sg22
I00
sg23
g669
sg25
g670
sg27
I1
sg28
I01
sg29
S'bag'
p2290
sg31
F1.0
sba(iIngredients
Ingredient
p2291
(dp2292
g12
g1503
sg19
I01
sg20
g21
sg22
I00
sg23
g1504
sg25
g1505
sg27
I1
sg28
I00
sg29
S'bunch'
p2293
sg31
F1.0
sbasg76
I01
sg77
(lp2294
g87
asg90
(lp2295
S'Make burritos\r'
p2296
asg95
Nsg100
I6
sg101
I40
sg103
S'Mexican'
p2297
sg20
g802
sg106
g962
sba(iRecipe
Recipe
p2298
(dp2299
g7
I5
sg9
I01
sg10
S'Emily'
p2300
sg12
S'Gumbo'
p2301
sg14
(lp2302
(iIngredients
Ingredient
p2303
(dp2304
g12
g871
sg19
I00
sg20
g21
sg22
I00
sg23
g872
sg25
g873
sg27
I1
sg28
I01
sg29
S'cup'
p2305
sg31
F1.0
sba(iIngredients
Ingredient
p2306
(dp2307
g12
S'Bacon'
p2308
sg19
I00
sg20
S'Pork'
p2309
sg22
I00
sg23
S'Meat'
p2310
sg25
S'sufw'
p2311
sg27
I1
sg28
I00
sg29
S'packs'
p2312
sg31
F2.0
sba(iIngredients
Ingredient
p2313
(dp2314
g12
g526
sg19
I00
sg20
g21
sg22
I00
sg23
g527
sg25
g528
sg27
I1
sg28
I00
sg29
S'heart'
p2315
sg31
F1.0
sba(iIngredients
Ingredient
p2316
(dp2317
g12
g266
sg19
I00
sg20
g21
sg22
I00
sg23
g267
sg25
g268
sg27
I1
sg28
I00
sg29
S'unit'
p2318
sg31
F1.0
sba(iIngredients
Ingredient
p2319
(dp2320
g12
g590
sg19
I00
sg20
g21
sg22
I00
sg23
g591
sg25
g592
sg27
I1
sg28
I00
sg29
S'unit'
p2321
sg31
F1.0
sba(iIngredients
Ingredient
p2322
(dp2323
g12
g51
sg19
I00
sg20
g21
sg22
I00
sg23
g52
sg25
g36
sg27
I1
sg28
I00
sg29
S'cloves'
p2324
sg31
F2.0
sba(iIngredients
Ingredient
p2325
(dp2326
g12
g2103
sg19
I00
sg20
g2104
sg22
I00
sg23
g2105
sg25
g2106
sg27
I1
sg28
I00
sg29
S'family pack'
p2327
sg31
F1.0
sba(iIngredients
Ingredient
p2328
(dp2329
g12
S'Beef Bouillon'
p2330
sg19
I00
sg20
g21
sg22
I00
sg23
S'Baking'
p2331
sg25
S'sufw'
p2332
sg27
I1
sg28
I01
sg29
S'cubes'
p2333
sg31
F6.0
sba(iIngredients
Ingredient
p2334
(dp2335
g12
g397
sg19
I00
sg20
g21
sg22
I00
sg23
g398
sg25
g399
sg27
I1
sg28
I01
sg29
S'to taste'
p2336
sg31
F1.0
sba(iIngredients
Ingredient
p2337
(dp2338
g12
g532
sg19
I00
sg20
g21
sg22
I00
sg23
g533
sg25
g534
sg27
I1
sg28
I01
sg29
S'to taste'
p2339
sg31
F1.0
sba(iIngredients
Ingredient
p2340
(dp2341
g12
g1306
sg19
I00
sg20
g1307
sg22
I01
sg23
g1308
sg25
g1309
sg27
I1
sg28
I00
sg29
S'lbs'
p2342
sg31
F2.0
sba(iIngredients
Ingredient
p2343
(dp2344
g12
S'Okra'
p2345
sg19
I00
sg20
g21
sg22
I00
sg23
S'Produce'
p2346
sg25
S'sufw'
p2347
sg27
I1
sg28
I00
sg29
S'pack'
p2348
sg31
F1.0
sba(iIngredients
Ingredient
p2349
(dp2350
g12
S'Shrimp'
p2351
sg19
I00
sg20
S'Fish'
p2352
sg22
I00
sg23
S'Fish'
p2353
sg25
S'sufw'
p2354
sg27
I1
sg28
I00
sg29
S'pack'
p2355
sg31
F1.0
sba(iIngredients
Ingredient
p2356
(dp2357
g12
S'Worcestershire Sauce'
p2358
sg19
I00
sg20
g21
sg22
I00
sg23
S'Condiments'
p2359
sg25
S'sufw'
p2360
sg27
I1
sg28
I01
sg29
S'to taste'
p2361
sg31
F1.0
sba(iIngredients
Ingredient
p2362
(dp2363
g12
g538
sg19
I00
sg20
g21
sg22
I00
sg23
g539
sg25
g540
sg27
I1
sg28
I01
sg29
S'to taste'
p2364
sg31
F1.0
sba(iIngredients
Ingredient
p2365
(dp2366
g12
g1349
sg19
I00
sg20
g21
sg22
I00
sg23
g1350
sg25
g1351
sg27
I1
sg28
I00
sg29
S'box'
p2367
sg31
F1.0
sba(iIngredients
Ingredient
p2368
(dp2369
g12
g1626
sg19
I00
sg20
g21
sg22
I00
sg23
g1627
sg25
g1628
sg27
I1
sg28
I01
sg29
S'leaves'
p2370
sg31
F4.0
sba(iIngredients
Ingredient
p2371
(dp2372
g12
g892
sg19
I00
sg20
g21
sg22
I00
sg23
g893
sg25
g894
sg27
I1
sg28
I01
sg29
S'to taste'
p2373
sg31
F1.0
sba(iIngredients
Ingredient
p2374
(dp2375
g12
S'Green Onions'
p2376
sg19
I01
sg20
g21
sg22
I00
sg23
S'Produce:Asian'
p2377
sg25
S'sufw'
p2378
sg27
I1
sg28
I00
sg29
S'bunch'
p2379
sg31
F1.0
sba(iIngredients
Ingredient
p2380
(dp2381
g12
S'Gumbo File'
p2382
sg19
I00
sg20
g21
sg22
I00
sg23
S'Baking'
p2383
sg25
S'sufw'
p2384
sg27
I1
sg28
I01
sg29
S'to taste'
p2385
sg31
F1.0
sbasg76
I01
sg77
(lp2386
g127
a(iCommon
RestrictionProfile
p2387
(dp2388
g77
g81
sg82
g83
sg12
S'Fish'
p2389
sg85
g86
sbasg90
(lp2390
S'Make gumbo\r'
p2391
asg95
Nsg100
I6
sg101
I120
sg103
S'Cajun'
p2392
sg20
g2309
sg106
g962
sba(iRecipe
Recipe
p2393
(dp2394
g7
I4
sg9
I01
sg10
S'Jason'
p2395
sg12
S'Jambalaya'
p2396
sg14
(lp2397
(iIngredients
Ingredient
p2398
(dp2399
g12
g1306
sg19
I00
sg20
g1307
sg22
I01
sg23
g1308
sg25
g1309
sg27
I1
sg28
I00
sg29
S'lb'
p2400
sg31
F1.5
sba(iIngredients
Ingredient
p2401
(dp2402
g12
g2103
sg19
I00
sg20
g2104
sg22
I00
sg23
g2105
sg25
g2106
sg27
I1
sg28
I00
sg29
S'family pack'
p2403
sg31
F1.0
sba(iIngredients
Ingredient
p2404
(dp2405
g12
g538
sg19
I00
sg20
g21
sg22
I00
sg23
g539
sg25
g540
sg27
I1
sg28
I01
sg29
S'cups'
p2406
sg31
F2.0
sba(iIngredients
Ingredient
p2407
(dp2408
g12
g862
sg19
I00
sg20
g21
sg22
I00
sg23
g863
sg25
g864
sg27
I1
sg28
I00
sg29
S'cans'
p2409
sg31
F2.0
sba(iIngredients
Ingredient
p2410
(dp2411
g12
S'Great Northern Beans'
p2412
sg19
I00
sg20
g21
sg22
I00
sg23
S'International:Canned'
p2413
sg25
S'sufw'
p2414
sg27
I1
sg28
I00
sg29
S'can'
p2415
sg31
F1.0
sba(iIngredients
Ingredient
p2416
(dp2417
g12
g563
sg19
I00
sg20
g21
sg22
I00
sg23
g564
sg25
g565
sg27
I1
sg28
I00
sg29
S'can'
p2418
sg31
F1.0
sba(iIngredients
Ingredient
p2419
(dp2420
g12
g266
sg19
I00
sg20
g21
sg22
I00
sg23
g267
sg25
g268
sg27
I1
sg28
I00
sg29
S'unit'
p2421
sg31
F1.0
sba(iIngredients
Ingredient
p2422
(dp2423
g12
g51
sg19
I00
sg20
g21
sg22
I00
sg23
g52
sg25
g36
sg27
I1
sg28
I00
sg29
S'head'
p2424
sg31
F1.0
sba(iIngredients
Ingredient
p2425
(dp2426
g12
g1407
sg19
I00
sg20
g21
sg22
I00
sg23
g1408
sg25
g1409
sg27
I1
sg28
I00
sg29
S'units'
p2427
sg31
F2.0
sba(iIngredients
Ingredient
p2428
(dp2429
g12
g409
sg19
I00
sg20
g21
sg22
I00
sg23
g410
sg25
g411
sg27
I1
sg28
I01
sg29
S'to taste'
p2430
sg31
F1.0
sba(iIngredients
Ingredient
p2431
(dp2432
g12
g608
sg19
I00
sg20
g21
sg22
I00
sg23
g609
sg25
g610
sg27
I1
sg28
I01
sg29
S'to taste'
p2433
sg31
F1.0
sba(iIngredients
Ingredient
p2434
(dp2435
g12
g233
sg19
I00
sg20
g21
sg22
I00
sg23
g234
sg25
g145
sg27
I1
sg28
I01
sg29
S'to taste'
p2436
sg31
F1.0
sba(iIngredients
Ingredient
p2437
(dp2438
g12
g56
sg19
I00
sg20
g21
sg22
I00
sg23
g57
sg25
g58
sg27
I1
sg28
I01
sg29
S'to taste'
p2439
sg31
F1.0
sba(iIngredients
Ingredient
p2440
(dp2441
g12
g457
sg19
I00
sg20
g21
sg22
I00
sg23
g458
sg25
g459
sg27
I1
sg28
I01
sg29
S'to taste'
p2442
sg31
F1.0
sbasg76
I01
sg77
(lp2443
g127
ag417
asg90
(lp2444
S'Make Jambalaya\r'
p2445
asg95
Nsg100
I5
sg101
I90
sg103
S'Cajun'
p2446
sg20
g1307
sg106
g962
sba(iRecipe
Recipe
p2447
(dp2448
g7
I4
sg9
I00
sg10
S'Jason'
p2449
sg12
S'Chinese Beef Stew'
p2450
sg14
(lp2451
(iIngredients
Ingredient
p2452
(dp2453
g12
g1394
sg19
I00
sg20
g1395
sg22
I01
sg23
g1396
sg25
g1397
sg27
I1
sg28
I00
sg29
S'unit'
p2454
sg31
F1.0
sba(iIngredients
Ingredient
p2455
(dp2456
g12
S'Yo Sum Choy'
p2457
sg19
I01
sg20
g21
sg22
I00
sg23
S'Produce:Asian'
p2458
sg25
S'sufw'
p2459
sg27
I1
sg28
I00
sg29
S'lb'
p2460
sg31
F2.0
sba(iIngredients
Ingredient
p2461
(dp2462
g12
g2376
sg19
I01
sg20
g21
sg22
I00
sg23
g2377
sg25
g2378
sg27
I1
sg28
I00
sg29
S'bunches'
p2463
sg31
F2.0
sba(iIngredients
Ingredient
p2464
(dp2465
g12
S'Bean Sprouts'
p2466
sg19
I00
sg20
g21
sg22
I00
sg23
S'International:EastAsian'
p2467
sg25
S'sufw'
p2468
sg27
I1
sg28
I00
sg29
S'oz'
p2469
sg31
F14.0
sba(iIngredients
Ingredient
p2470
(dp2471
g12
g1288
sg19
I00
sg20
g21
sg22
I00
sg23
g1289
sg25
g1290
sg27
I1
sg28
I00
sg29
S'piece'
p2472
sg31
F1.0
sba(iIngredients
Ingredient
p2473
(dp2474
g12
g51
sg19
I00
sg20
g21
sg22
I00
sg23
g52
sg25
g36
sg27
I1
sg28
I00
sg29
S'head'
p2475
sg31
F1.0
sba(iIngredients
Ingredient
p2476
(dp2477
g12
S'Soy Sauce'
p2478
sg19
I00
sg20
g21
sg22
I00
sg23
S'International:EastAsian'
p2479
sg25
S'sufw'
p2480
sg27
I1
sg28
I01
sg29
S'to taste'
p2481
sg31
F1.0
sba(iIngredients
Ingredient
p2482
(dp2483
g12
g1407
sg19
I00
sg20
g21
sg22
I00
sg23
g1408
sg25
g1409
sg27
I1
sg28
I00
sg29
S'unit'
p2484
sg31
F1.0
sba(iIngredients
Ingredient
p2485
(dp2486
g12
S'Mustard Seeds'
p2487
sg19
I00
sg20
g21
sg22
I00
sg23
S'Baking'
p2488
sg25
S'sufw'
p2489
sg27
I1
sg28
I01
sg29
S'to taste'
p2490
sg31
F1.0
sba(iIngredients
Ingredient
p2491
(dp2492
g12
S'Vermicelli Rice Noodles'
p2493
sg19
I00
sg20
g21
sg22
I00
sg23
S'International:EastAsian'
p2494
sg25
S'sufw'
p2495
sg27
I1
sg28
I00
sg29
S'box'
p2496
sg31
F1.0
sba(iIngredients
Ingredient
p2497
(dp2498
g12
g1611
sg19
I00
sg20
g21
sg22
I00
sg23
g1612
sg25
g1613
sg27
I1
sg28
I00
sg29
S'cans'
p2499
sg31
F2.0
sbasg76
I01
sg77
(lp2500
g127
asg90
(lp2501
S'Make soup\r'
p2502
asg95
Nsg100
I7
sg101
I60
sg103
S'Chinese'
p2503
sg20
g1395
sg106
g962
sba(iRecipe
Recipe
p2504
(dp2505
g7
I2
sg9
I01
sg10
S'Emily'
p2506
sg12
S'Cod with Lemon'
p2507
sg14
(lp2508
(iIngredients
Ingredient
p2509
(dp2510
g12
S'Cod'
p2511
sg19
I01
sg20
S'Fish'
p2512
sg22
I00
sg23
S'Fish'
p2513
sg25
S'sufw'
p2514
sg27
I1
sg28
I00
sg29
S'lb'
p2515
sg31
F2.0
sba(iIngredients
Ingredient
p2516
(dp2517
g12
g210
sg19
I00
sg20
g21
sg22
I00
sg23
g211
sg25
g145
sg27
I1
sg28
I01
sg29
S'stick'
p2518
sg31
F1.0
sba(iIngredients
Ingredient
p2519
(dp2520
g12
g1503
sg19
I01
sg20
g21
sg22
I00
sg23
g1504
sg25
g1505
sg27
I1
sg28
I00
sg29
S'bunch'
p2521
sg31
F1.0
sba(iIngredients
Ingredient
p2522
(dp2523
g12
g1485
sg19
I00
sg20
g21
sg22
I00
sg23
g1486
sg25
g1487
sg27
I1
sg28
I00
sg29
S'units'
p2524
sg31
F2.0
sba(iIngredients
Ingredient
p2525
(dp2526
g12
g448
sg19
I00
sg20
g21
sg22
I00
sg23
g449
sg25
g450
sg27
I1
sg28
I00
sg29
S'bunches'
p2527
sg31
F2.0
sba(iIngredients
Ingredient
p2528
(dp2529
g12
g56
sg19
I00
sg20
g21
sg22
I00
sg23
g57
sg25
g58
sg27
I1
sg28
I01
sg29
S'to taste'
p2530
sg31
F1.0
sba(iIngredients
Ingredient
p2531
(dp2532
g12
g233
sg19
I00
sg20
g21
sg22
I00
sg23
g234
sg25
g145
sg27
I1
sg28
I01
sg29
S'to taste'
p2533
sg31
F1.0
sbasg76
I01
sg77
(lp2534
g2387
asg90
(lp2535
S'Make fish\r'
p2536
asg95
Nsg100
I6
sg101
I15
sg103
S'American'
p2537
sg20
g2512
sg106
g962
sba(iRecipe
Recipe
p2538
(dp2539
g7
I2
sg9
I01
sg10
S'Emily'
p2540
sg12
S'Flounder'
p2541
sg14
(lp2542
(iIngredients
Ingredient
p2543
(dp2544
g12
S'Flounder'
p2545
sg19
I01
sg20
S'Fish'
p2546
sg22
I00
sg23
S'Fish'
p2547
sg25
S'sufw'
p2548
sg27
I1
sg28
I00
sg29
S'lb'
p2549
sg31
F2.0
sba(iIngredients
Ingredient
p2550
(dp2551
g12
g56
sg19
I00
sg20
g21
sg22
I00
sg23
g57
sg25
g58
sg27
I1
sg28
I01
sg29
S'to taste'
p2552
sg31
F1.0
sba(iIngredients
Ingredient
p2553
(dp2554
g12
g233
sg19
I00
sg20
g21
sg22
I00
sg23
g234
sg25
g145
sg27
I1
sg28
I01
sg29
S'to taste'
p2555
sg31
F1.0
sba(iIngredients
Ingredient
p2556
(dp2557
g12
g210
sg19
I00
sg20
g21
sg22
I00
sg23
g211
sg25
g145
sg27
I1
sg28
I01
sg29
S'to taste'
p2558
sg31
F1.0
sba(iIngredients
Ingredient
p2559
(dp2560
g12
g448
sg19
I00
sg20
g21
sg22
I00
sg23
g449
sg25
g450
sg27
I1
sg28
I00
sg29
S'bunches'
p2561
sg31
F2.0
sbasg76
I01
sg77
(lp2562
g2387
asg90
(lp2563
S'Make Fish\r'
p2564
asg95
Nsg100
I8
sg101
I15
sg103
S'American'
p2565
sg20
g2546
sg106
g962
sba(iRecipe
Recipe
p2566
(dp2567
g7
I4
sg9
I01
sg10
S'Jason'
p2568
sg12
S'Tikka Masala'
p2569
sg14
(lp2570
(iIngredients
Ingredient
p2571
(dp2572
g12
g1313
sg19
I00
sg20
g21
sg22
I00
sg23
g1314
sg25
g1315
sg27
I1
sg28
I00
sg29
S'container'
p2573
sg31
F1.0
sba(iIngredients
Ingredient
p2574
(dp2575
g12
g1306
sg19
I00
sg20
g1307
sg22
I01
sg23
g1308
sg25
g1309
sg27
I1
sg28
I00
sg29
S'family pack'
p2576
sg31
F1.0
sba(iIngredients
Ingredient
p2577
(dp2578
g12
g1376
sg19
I00
sg20
g21
sg22
I00
sg23
g1377
sg25
g1378
sg27
I1
sg28
I01
sg29
S'to taste'
p2579
sg31
F1.0
sba(iIngredients
Ingredient
p2580
(dp2581
g12
g51
sg19
I00
sg20
g21
sg22
I00
sg23
g52
sg25
g36
sg27
I1
sg28
I00
sg29
S'cloves'
p2582
sg31
F5.0
sba(iIngredients
Ingredient
p2583
(dp2584
g12
g1273
sg19
I00
sg20
g21
sg22
I00
sg23
g1274
sg25
g1275
sg27
I1
sg28
I01
sg29
S'Tbs'
p2585
sg31
F1.0
sba(iIngredients
Ingredient
p2586
(dp2587
g12
g266
sg19
I00
sg20
g21
sg22
I00
sg23
g267
sg25
g268
sg27
I1
sg28
I00
sg29
S'units'
p2588
sg31
F2.0
sba(iIngredients
Ingredient
p2589
(dp2590
g12
g210
sg19
I00
sg20
g21
sg22
I00
sg23
g211
sg25
g145
sg27
I1
sg28
I01
sg29
S'sticks'
p2591
sg31
F0.5
sba(iIngredients
Ingredient
p2592
(dp2593
g12
g1288
sg19
I00
sg20
g21
sg22
I00
sg23
g1289
sg25
g1290
sg27
I1
sg28
I00
sg29
S'unit'
p2594
sg31
F1.0
sba(iIngredients
Ingredient
p2595
(dp2596
g12
g614
sg19
I00
sg20
g21
sg22
I00
sg23
g615
sg25
g616
sg27
I1
sg28
I01
sg29
S'tsp'
p2597
sg31
F2.0
sba(iIngredients
Ingredient
p2598
(dp2599
g12
g1998
sg19
I00
sg20
g21
sg22
I00
sg23
g1999
sg25
g2000
sg27
I1
sg28
I01
sg29
S'tsp'
p2600
sg31
F2.0
sba(iIngredients
Ingredient
p2601
(dp2602
g12
g397
sg19
I00
sg20
g21
sg22
I00
sg23
g398
sg25
g399
sg27
I1
sg28
I01
sg29
S'tsp'
p2603
sg31
F0.5
sba(iIngredients
Ingredient
p2604
(dp2605
g12
g56
sg19
I00
sg20
g21
sg22
I00
sg23
g57
sg25
g58
sg27
I1
sg28
I01
sg29
S'to taste'
p2606
sg31
F1.0
sba(iIngredients
Ingredient
p2607
(dp2608
g12
S'Tomato Puree'
p2609
sg19
I00
sg20
g21
sg22
I00
sg23
S'Tomato'
p2610
sg25
S'sufw'
p2611
sg27
I1
sg28
I00
sg29
S'big can'
p2612
sg31
F1.0
sba(iIngredients
Ingredient
p2613
(dp2614
g12
g856
sg19
I00
sg20
g21
sg22
I00
sg23
g857
sg25
g858
sg27
I1
sg28
I00
sg29
S'pint'
p2615
sg31
F1.0
sba(iIngredients
Ingredient
p2616
(dp2617
g12
g538
sg19
I00
sg20
g21
sg22
I00
sg23
g539
sg25
g540
sg27
I1
sg28
I01
sg29
S'cups'
p2618
sg31
F2.0
sbasg76
I01
sg77
(lp2619
g127
ag246
asg90
(lp2620
S'Make Tikka\r'
p2621
asg95
Nsg100
I7
sg101
I60
sg103
S'Indian'
p2622
sg20
g1307
sg106
g962
sba(iRecipe
Recipe
p2623
(dp2624
g7
I4
sg9
I01
sg10
S'Jason'
p2625
sg12
S'Biryani'
p2626
sg14
(lp2627
(iIngredients
Ingredient
p2628
(dp2629
g12
S'Boneless Lamb'
p2630
sg19
I00
sg20
S'Mutton'
p2631
sg22
I00
sg23
S'Meat'
p2632
sg25
S'sufw'
p2633
sg27
I1
sg28
I00
sg29
S'lb'
p2634
sg31
F2.0
sba(iIngredients
Ingredient
p2635
(dp2636
g12
g538
sg19
I00
sg20
g21
sg22
I00
sg23
g539
sg25
g540
sg27
I1
sg28
I01
sg29
S'cups'
p2637
sg31
F3.0
sba(iIngredients
Ingredient
p2638
(dp2639
g12
S'Frozen Peas and Carrots'
p2640
sg19
I00
sg20
g21
sg22
I00
sg23
S'Frozen:Vegetable'
p2641
sg25
S'sufw'
p2642
sg27
I1
sg28
I00
sg29
S'bag'
p2643
sg31
F1.0
sba(iIngredients
Ingredient
p2644
(dp2645
g12
g266
sg19
I00
sg20
g21
sg22
I00
sg23
g267
sg25
g268
sg27
I1
sg28
I00
sg29
S'units'
p2646
sg31
F2.0
sba(iIngredients
Ingredient
p2647
(dp2648
g12
g1288
sg19
I00
sg20
g21
sg22
I00
sg23
g1289
sg25
g1290
sg27
I1
sg28
I00
sg29
S'unit'
p2649
sg31
F1.0
sba(iIngredients
Ingredient
p2650
(dp2651
g12
g51
sg19
I00
sg20
g21
sg22
I00
sg23
g52
sg25
g36
sg27
I1
sg28
I00
sg29
S'cloves'
p2652
sg31
F5.0
sba(iIngredients
Ingredient
p2653
(dp2654
g12
g56
sg19
I00
sg20
g21
sg22
I00
sg23
g57
sg25
g58
sg27
I1
sg28
I01
sg29
S'to taste'
p2655
sg31
F1.0
sba(iIngredients
Ingredient
p2656
(dp2657
g12
g614
sg19
I00
sg20
g21
sg22
I00
sg23
g615
sg25
g616
sg27
I1
sg28
I01
sg29
S'to taste'
p2658
sg31
F1.0
sba(iIngredients
Ingredient
p2659
(dp2660
g12
g1376
sg19
I00
sg20
g21
sg22
I00
sg23
g1377
sg25
g1378
sg27
I1
sg28
I01
sg29
S'to taste'
p2661
sg31
F1.0
sba(iIngredients
Ingredient
p2662
(dp2663
g12
g397
sg19
I00
sg20
g21
sg22
I00
sg23
g398
sg25
g399
sg27
I1
sg28
I01
sg29
S'to taste'
p2664
sg31
F1.0
sba(iIngredients
Ingredient
p2665
(dp2666
g12
g1343
sg19
I00
sg20
g21
sg22
I00
sg23
g1344
sg25
g1345
sg27
I1
sg28
I01
sg29
S'to taste'
p2667
sg31
F1.0
sbasg76
I01
sg77
(lp2668
g127
ag417
asg90
(lp2669
S'Make Biryani\r'
p2670
asg95
Nsg100
I6
sg101
I6
sg103
S'Indian'
p2671
sg20
g2631
sg106
g962
sba(iRecipe
Recipe
p2672
(dp2673
g7
I4
sg9
I01
sg10
S'Jason'
p2674
sg12
S'Beef Keema'
p2675
sg14
(lp2676
(iIngredients
Ingredient
p2677
(dp2678
g12
g260
sg19
I01
sg20
g261
sg22
I01
sg23
g262
sg25
g145
sg27
I1
sg28
I00
sg29
S'lbs'
p2679
sg31
F2.0
sba(iIngredients
Ingredient
p2680
(dp2681
g12
g538
sg19
I00
sg20
g21
sg22
I00
sg23
g539
sg25
g540
sg27
I1
sg28
I01
sg29
S'cups'
p2682
sg31
F2.0
sba(iIngredients
Ingredient
p2683
(dp2684
g12
g333
sg19
I00
sg20
g21
sg22
I00
sg23
g334
sg25
g335
sg27
I1
sg28
I00
sg29
S'cans'
p2685
sg31
F2.0
sba(iIngredients
Ingredient
p2686
(dp2687
g12
g1575
sg19
I00
sg20
g21
sg22
I00
sg23
g1576
sg25
g1577
sg27
I1
sg28
I00
sg29
S'bag'
p2688
sg31
F1.0
sba(iIngredients
Ingredient
p2689
(dp2690
g12
g397
sg19
I00
sg20
g21
sg22
I00
sg23
g398
sg25
g399
sg27
I1
sg28
I01
sg29
S'to taste'
p2691
sg31
F1.0
sba(iIngredients
Ingredient
p2692
(dp2693
g12
g56
sg19
I00
sg20
g21
sg22
I00
sg23
g57
sg25
g58
sg27
I1
sg28
I01
sg29
S'to taste'
p2694
sg31
F1.0
sba(iIngredients
Ingredient
p2695
(dp2696
g12
g1288
sg19
I00
sg20
g21
sg22
I00
sg23
g1289
sg25
g1290
sg27
I1
sg28
I00
sg29
S'unit'
p2697
sg31
F1.0
sba(iIngredients
Ingredient
p2698
(dp2699
g12
g783
sg19
I00
sg20
g21
sg22
I00
sg23
g784
sg25
g785
sg27
I1
sg28
I00
sg29
S'bag'
p2700
sg31
F1.0
sba(iIngredients
Ingredient
p2701
(dp2702
g12
g266
sg19
I00
sg20
g21
sg22
I00
sg23
g267
sg25
g268
sg27
I1
sg28
I00
sg29
S'unit'
p2703
sg31
F1.0
sba(iIngredients
Ingredient
p2704
(dp2705
g12
g1407
sg19
I00
sg20
g21
sg22
I00
sg23
g1408
sg25
g1409
sg27
I1
sg28
I00
sg29
S'unit'
p2706
sg31
F1.0
sbasg76
I01
sg77
(lp2707
g127
ag417
asg90
(lp2708
S'Make Keema\r'
p2709
asg95
Nsg100
I3
sg101
I30
sg103
S'Indian'
p2710
sg20
g261
sg106
g962
sba(iRecipe
Recipe
p2711
(dp2712
g7
I5
sg9
I01
sg10
S'Emily'
p2713
sg12
S'Dal Makhani'
p2714
sg14
(lp2715
(iIngredients
Ingredient
p2716
(dp2717
g12
S'Urad Dal'
p2718
sg19
I00
sg20
g21
sg22
I00
sg23
S'International:Indian'
p2719
sg25
S'sufw'
p2720
sg27
I1
sg28
I01
sg29
S'cups'
p2721
sg31
F1.5
sba(iIngredients
Ingredient
p2722
(dp2723
g12
g563
sg19
I00
sg20
g21
sg22
I00
sg23
g564
sg25
g565
sg27
I1
sg28
I00
sg29
S'cans'
p2724
sg31
F2.0
sba(iIngredients
Ingredient
p2725
(dp2726
g12
g1349
sg19
I00
sg20
g21
sg22
I00
sg23
g1350
sg25
g1351
sg27
I1
sg28
I00
sg29
S'box'
p2727
sg31
F1.0
sba(iIngredients
Ingredient
p2728
(dp2729
g12
S'Cloves'
p2730
sg19
I00
sg20
g21
sg22
I00
sg23
S'Baking'
p2731
sg25
S'sufw'
p2732
sg27
I1
sg28
I01
sg29
S'units'
p2733
sg31
F6.0
sba(iIngredients
Ingredient
p2734
(dp2735
g12
S'Cardamom Pods'
p2736
sg19
I00
sg20
g21
sg22
I00
sg23
S'Baking'
p2737
sg25
S'sufw'
p2738
sg27
I1
sg28
I01
sg29
S'to taste'
p2739
sg31
F1.0
sba(iIngredients
Ingredient
p2740
(dp2741
g12
g397
sg19
I00
sg20
g21
sg22
I00
sg23
g398
sg25
g399
sg27
I1
sg28
I01
sg29
S'to taste'
p2742
sg31
F1.0
sba(iIngredients
Ingredient
p2743
(dp2744
g12
g608
sg19
I00
sg20
g21
sg22
I00
sg23
g609
sg25
g610
sg27
I1
sg28
I01
sg29
S'to taste'
p2745
sg31
F1.0
sba(iIngredients
Ingredient
p2746
(dp2747
g12
g614
sg19
I00
sg20
g21
sg22
I00
sg23
g615
sg25
g616
sg27
I1
sg28
I01
sg29
S'to taste'
p2748
sg31
F1.0
sba(iIngredients
Ingredient
p2749
(dp2750
g12
g51
sg19
I00
sg20
g21
sg22
I00
sg23
g52
sg25
g36
sg27
I1
sg28
I00
sg29
S'cloves'
p2751
sg31
F8.0
sba(iIngredients
Ingredient
p2752
(dp2753
g12
g1288
sg19
I00
sg20
g21
sg22
I00
sg23
g1289
sg25
g1290
sg27
I1
sg28
I00
sg29
S'unit'
p2754
sg31
F1.0
sba(iIngredients
Ingredient
p2755
(dp2756
g12
g1998
sg19
I00
sg20
g21
sg22
I00
sg23
g1999
sg25
g2000
sg27
I1
sg28
I01
sg29
S'to taste'
p2757
sg31
F1.0
sba(iIngredients
Ingredient
p2758
(dp2759
g12
g856
sg19
I00
sg20
g21
sg22
I00
sg23
g857
sg25
g858
sg27
I1
sg28
I00
sg29
S'cups'
p2760
sg31
F0.5
sba(iIngredients
Ingredient
p2761
(dp2762
g12
g210
sg19
I00
sg20
g21
sg22
I00
sg23
g211
sg25
g145
sg27
I1
sg28
I01
sg29
S'Tbs'
p2763
sg31
F3.0
sba(iIngredients
Ingredient
p2764
(dp2765
g12
g266
sg19
I00
sg20
g21
sg22
I00
sg23
g267
sg25
g268
sg27
I1
sg28
I00
sg29
S'unit'
p2766
sg31
F1.0
sba(iIngredients
Ingredient
p2767
(dp2768
g12
g1273
sg19
I00
sg20
g21
sg22
I00
sg23
g1274
sg25
g1275
sg27
I1
sg28
I01
sg29
S'Tbs'
p2769
sg31
F1.0
sba(iIngredients
Ingredient
p2770
(dp2771
g12
g56
sg19
I00
sg20
g21
sg22
I00
sg23
g57
sg25
g58
sg27
I1
sg28
I01
sg29
S'to taste'
p2772
sg31
F1.0
sbasg76
I00
sg77
(lp2773
g417
ag87
ag246
asg90
(lp2774
S'Make Dal\r'
p2775
asg95
Nsg100
I7
sg101
I120
sg103
S'Indian'
p2776
sg20
g252
sg106
g962
sba(iRecipe
Recipe
p2777
(dp2778
g7
I4
sg9
I01
sg10
S'Jason'
p2779
sg12
S'Yellow Dal'
p2780
sg14
(lp2781
(iIngredients
Ingredient
p2782
(dp2783
g12
S'Black Lentils'
p2784
sg19
I00
sg20
g21
sg22
I00
sg23
S'International:Indian'
p2785
sg25
S'sufw'
p2786
sg27
I1
sg28
I01
sg29
S'cups'
p2787
sg31
F2.0
sba(iIngredients
Ingredient
p2788
(dp2789
g12
g563
sg19
I00
sg20
g21
sg22
I00
sg23
g564
sg25
g565
sg27
I1
sg28
I00
sg29
S'cup'
p2790
sg31
F1.0
sba(iIngredients
Ingredient
p2791
(dp2792
g12
g266
sg19
I00
sg20
g21
sg22
I00
sg23
g267
sg25
g268
sg27
I1
sg28
I00
sg29
S'units'
p2793
sg31
F2.0
sba(iIngredients
Ingredient
p2794
(dp2795
g12
g51
sg19
I00
sg20
g21
sg22
I00
sg23
g52
sg25
g36
sg27
I1
sg28
I00
sg29
S'cloves'
p2796
sg31
F9.0
sba(iIngredients
Ingredient
p2797
(dp2798
g12
g1288
sg19
I00
sg20
g21
sg22
I00
sg23
g1289
sg25
g1290
sg27
I1
sg28
I00
sg29
S'unit'
p2799
sg31
F1.0
sba(iIngredients
Ingredient
p2800
(dp2801
g12
g1407
sg19
I00
sg20
g21
sg22
I00
sg23
g1408
sg25
g1409
sg27
I1
sg28
I00
sg29
S'units'
p2802
sg31
F2.0
sba(iIngredients
Ingredient
p2803
(dp2804
g12
g1349
sg19
I00
sg20
g21
sg22
I00
sg23
g1350
sg25
g1351
sg27
I1
sg28
I00
sg29
S'box'
p2805
sg31
F1.0
sba(iIngredients
Ingredient
p2806
(dp2807
g12
g614
sg19
I00
sg20
g21
sg22
I00
sg23
g615
sg25
g616
sg27
I1
sg28
I01
sg29
S'to taste'
p2808
sg31
F1.0
sba(iIngredients
Ingredient
p2809
(dp2810
g12
g1376
sg19
I00
sg20
g21
sg22
I00
sg23
g1377
sg25
g1378
sg27
I1
sg28
I01
sg29
S'to taste'
p2811
sg31
F1.0
sba(iIngredients
Ingredient
p2812
(dp2813
g12
g608
sg19
I00
sg20
g21
sg22
I00
sg23
g609
sg25
g610
sg27
I1
sg28
I01
sg29
S'to taste'
p2814
sg31
F1.0
sba(iIngredients
Ingredient
p2815
(dp2816
g12
g2736
sg19
I00
sg20
g21
sg22
I00
sg23
g2737
sg25
g2738
sg27
I1
sg28
I01
sg29
S'to taste'
p2817
sg31
F1.0
sba(iIngredients
Ingredient
p2818
(dp2819
g12
g1343
sg19
I00
sg20
g21
sg22
I00
sg23
g1344
sg25
g1345
sg27
I1
sg28
I01
sg29
S'to taste'
p2820
sg31
F1.0
sba(iIngredients
Ingredient
p2821
(dp2822
g12
g56
sg19
I00
sg20
g21
sg22
I00
sg23
g57
sg25
g58
sg27
I1
sg28
I01
sg29
S'to taste'
p2823
sg31
F1.0
sba(iIngredients
Ingredient
p2824
(dp2825
g12
g210
sg19
I00
sg20
g21
sg22
I00
sg23
g211
sg25
g145
sg27
I1
sg28
I01
sg29
S'stick'
p2826
sg31
F1.0
sba(iIngredients
Ingredient
p2827
(dp2828
g12
g856
sg19
I00
sg20
g21
sg22
I00
sg23
g857
sg25
g858
sg27
I1
sg28
I00
sg29
S'cup'
p2829
sg31
F1.0
sbasg76
I01
sg77
(lp2830
g417
ag87
asg90
(lp2831
S'Make dal\r'
p2832
asg95
Nsg100
I4
sg101
I120
sg103
S'Indian'
p2833
sg20
g252
sg106
g962
sba(iRecipe
Recipe
p2834
(dp2835
g7
I3
sg9
I01
sg10
S'Emily'
p2836
sg12
S'Indian Roast Beef and Potatoes'
p2837
sg14
(lp2838
(iIngredients
Ingredient
p2839
(dp2840
g12
g1394
sg19
I00
sg20
g1395
sg22
I01
sg23
g1396
sg25
g1397
sg27
I1
sg28
I00
sg29
S'unit'
p2841
sg31
F1.0
sba(iIngredients
Ingredient
p2842
(dp2843
g12
g266
sg19
I00
sg20
g21
sg22
I00
sg23
g267
sg25
g268
sg27
I1
sg28
I00
sg29
S'units'
p2844
sg31
F2.0
sba(iIngredients
Ingredient
p2845
(dp2846
g12
g783
sg19
I00
sg20
g21
sg22
I00
sg23
g784
sg25
g785
sg27
I1
sg28
I00
sg29
S'bag'
p2847
sg31
F1.0
sba(iIngredients
Ingredient
p2848
(dp2849
g12
g1273
sg19
I00
sg20
g21
sg22
I00
sg23
g1274
sg25
g1275
sg27
I1
sg28
I01
sg29
S'to taste'
p2850
sg31
F1.0
sba(iIngredients
Ingredient
p2851
(dp2852
g12
g1343
sg19
I00
sg20
g21
sg22
I00
sg23
g1344
sg25
g1345
sg27
I1
sg28
I01
sg29
S'to taste'
p2853
sg31
F1.0
sba(iIngredients
Ingredient
p2854
(dp2855
g12
g397
sg19
I00
sg20
g21
sg22
I00
sg23
g398
sg25
g399
sg27
I1
sg28
I01
sg29
S'to taste'
p2856
sg31
F1.0
sba(iIngredients
Ingredient
p2857
(dp2858
g12
g614
sg19
I00
sg20
g21
sg22
I00
sg23
g615
sg25
g616
sg27
I1
sg28
I01
sg29
S'to taste'
p2859
sg31
F1.0
sba(iIngredients
Ingredient
p2860
(dp2861
g12
g1376
sg19
I00
sg20
g21
sg22
I00
sg23
g1377
sg25
g1378
sg27
I1
sg28
I01
sg29
S'to taste'
p2862
sg31
F1.0
sbasg76
I01
sg77
(lp2863
g127
ag417
asg90
(lp2864
S'Make Beef and Potatoes\r'
p2865
asg95
Nsg100
I6
sg101
I40
sg103
S'Indian'
p2866
sg20
g1395
sg106
g962
sba(iRecipe
Recipe
p2867
(dp2868
g7
I5
sg9
I01
sg10
S'Jason'
p2869
sg12
S'Turkey Squash and Potatoes'
p2870
sg14
(lp2871
(iIngredients
Ingredient
p2872
(dp2873
g12
g970
sg19
I00
sg20
g971
sg22
I01
sg23
g972
sg25
g973
sg27
I1
sg28
I00
sg29
S'leftovers'
p2874
sg31
F1.0
sba(iIngredients
Ingredient
p2875
(dp2876
g12
S'Butternut Squash'
p2877
sg19
I00
sg20
g21
sg22
I00
sg23
S'Produce:Back'
p2878
sg25
S'sufw'
p2879
sg27
I1
sg28
I00
sg29
S'lb'
p2880
sg31
F1.0
sba(iIngredients
Ingredient
p2881
(dp2882
g12
S'Russet Potatoes'
p2883
sg19
I00
sg20
g21
sg22
I00
sg23
S'Produce:Back'
p2884
sg25
S'sufw'
p2885
sg27
I1
sg28
I00
sg29
S'bag'
p2886
sg31
F1.0
sba(iIngredients
Ingredient
p2887
(dp2888
g12
g266
sg19
I00
sg20
g21
sg22
I00
sg23
g267
sg25
g268
sg27
I1
sg28
I00
sg29
S'units'
p2889
sg31
F2.0
sba(iIngredients
Ingredient
p2890
(dp2891
g12
g51
sg19
I00
sg20
g21
sg22
I00
sg23
g52
sg25
g36
sg27
I1
sg28
I00
sg29
S'cloves'
p2892
sg31
F6.0
sba(iIngredients
Ingredient
p2893
(dp2894
g12
g1273
sg19
I00
sg20
g21
sg22
I00
sg23
g1274
sg25
g1275
sg27
I1
sg28
I01
sg29
S'cups'
p2895
sg31
F0.25
sba(iIngredients
Ingredient
p2896
(dp2897
g12
S'Coconut Milk'
p2898
sg19
I00
sg20
g21
sg22
I00
sg23
S'International:EastAsian'
p2899
sg25
S'sufw'
p2900
sg27
I1
sg28
I00
sg29
S'cans'
p2901
sg31
F2.0
sba(iIngredients
Ingredient
p2902
(dp2903
g12
g1376
sg19
I00
sg20
g21
sg22
I00
sg23
g1377
sg25
g1378
sg27
I1
sg28
I01
sg29
S'Tbs'
p2904
sg31
F1.5
sba(iIngredients
Ingredient
p2905
(dp2906
g12
g614
sg19
I00
sg20
g21
sg22
I00
sg23
g615
sg25
g616
sg27
I1
sg28
I01
sg29
S'tsp'
p2907
sg31
F2.0
sba(iIngredients
Ingredient
p2908
(dp2909
g12
g397
sg19
I00
sg20
g21
sg22
I00
sg23
g398
sg25
g399
sg27
I1
sg28
I01
sg29
S'tsp'
p2910
sg31
F1.0
sba(iIngredients
Ingredient
p2911
(dp2912
g12
g1343
sg19
I00
sg20
g21
sg22
I00
sg23
g1344
sg25
g1345
sg27
I1
sg28
I01
sg29
S'tsp'
p2913
sg31
F0.5
sba(iIngredients
Ingredient
p2914
(dp2915
g12
g56
sg19
I00
sg20
g21
sg22
I00
sg23
g57
sg25
g58
sg27
I1
sg28
I01
sg29
S'to taste'
p2916
sg31
F1.0
sbasg76
I01
sg77
(lp2917
g127
ag87
ag246
asg90
(lp2918
S'Make curry\r'
p2919
asg95
Nsg100
I6
sg101
I60
sg103
S'Indian'
p2920
sg20
g971
sg106
g962
sba(iRecipe
Recipe
p2921
(dp2922
g7
I4
sg9
I01
sg10
S'Jason'
p2923
sg12
S'Stir Fry'
p2924
sg14
(lp2925
(iIngredients
Ingredient
p2926
(dp2927
g12
S'Pork Tenderloin'
p2928
sg19
I00
sg20
S'Pork'
p2929
sg22
I00
sg23
S'Meat'
p2930
sg25
S'sufw'
p2931
sg27
I1
sg28
I00
sg29
S'lb'
p2932
sg31
F2.0
sba(iIngredients
Ingredient
p2933
(dp2934
g12
g850
sg19
I00
sg20
g21
sg22
I00
sg23
g851
sg25
g852
sg27
I1
sg28
I00
sg29
S'small'
p2935
sg31
F1.0
sba(iIngredients
Ingredient
p2936
(dp2937
g12
g2457
sg19
I01
sg20
g21
sg22
I00
sg23
g2458
sg25
g2459
sg27
I1
sg28
I00
sg29
S'bag'
p2938
sg31
F1.0
sba(iIngredients
Ingredient
p2939
(dp2940
g12
g1986
sg19
I00
sg20
g21
sg22
I00
sg23
g1987
sg25
g1988
sg27
I1
sg28
I00
sg29
S'unit'
p2941
sg31
F1.0
sba(iIngredients
Ingredient
p2942
(dp2943
g12
S'Baby Corn'
p2944
sg19
I00
sg20
g21
sg22
I00
sg23
S'International:EastAsian'
p2945
sg25
S'sufw'
p2946
sg27
I1
sg28
I00
sg29
S'can'
p2947
sg31
F1.0
sba(iIngredients
Ingredient
p2948
(dp2949
g12
S'Bamboo Shoots'
p2950
sg19
I00
sg20
g21
sg22
I00
sg23
S'International:EastAsian'
p2951
sg25
S'sufw'
p2952
sg27
I1
sg28
I00
sg29
S'can'
p2953
sg31
F1.0
sba(iIngredients
Ingredient
p2954
(dp2955
g12
S'Wegmans Stir Fry Sauce'
p2956
sg19
I00
sg20
g21
sg22
I00
sg23
S'International:EastAsian'
p2957
sg25
S'sufw'
p2958
sg27
I1
sg28
I01
sg29
S'bottle'
p2959
sg31
F1.0
sba(iIngredients
Ingredient
p2960
(dp2961
g12
g2478
sg19
I00
sg20
g21
sg22
I00
sg23
g2479
sg25
g2480
sg27
I1
sg28
I01
sg29
S'to taste'
p2962
sg31
F1.0
sba(iIngredients
Ingredient
p2963
(dp2964
g12
S'Spaghetti Style Rice Noodles'
p2965
sg19
I00
sg20
g21
sg22
I00
sg23
S'International:EastAsian'
p2966
sg25
S'sufw'
p2967
sg27
I1
sg28
I00
sg29
S'oz'
p2968
sg31
F24.0
sba(iIngredients
Ingredient
p2969
(dp2970
g12
g1407
sg19
I00
sg20
g21
sg22
I00
sg23
g1408
sg25
g1409
sg27
I1
sg28
I00
sg29
S'units'
p2971
sg31
F2.0
sba(iIngredients
Ingredient
p2972
(dp2973
g12
g1288
sg19
I00
sg20
g21
sg22
I00
sg23
g1289
sg25
g1290
sg27
I1
sg28
I00
sg29
S'unit'
p2974
sg31
F1.0
sba(iIngredients
Ingredient
p2975
(dp2976
g12
g51
sg19
I00
sg20
g21
sg22
I00
sg23
g52
sg25
g36
sg27
I1
sg28
I00
sg29
S'cloves'
p2977
sg31
F6.0
sba(iIngredients
Ingredient
p2978
(dp2979
g12
g2487
sg19
I00
sg20
g21
sg22
I00
sg23
g2488
sg25
g2489
sg27
I1
sg28
I01
sg29
S'tsp'
p2980
sg31
F2.0
sba(iIngredients
Ingredient
p2981
(dp2982
g12
g1273
sg19
I00
sg20
g21
sg22
I00
sg23
g1274
sg25
g1275
sg27
I1
sg28
I01
sg29
S'to taste'
p2983
sg31
F1.0
sbasg76
I01
sg77
(lp2984
g127
asg90
(lp2985
S'Make stir fry\r'
p2986
asg95
Nsg100
I4
sg101
I60
sg103
S'Chinese'
p2987
sg20
g2929
sg106
g962
sba(iRecipe
Recipe
p2988
(dp2989
g7
I5
sg9
I01
sg10
S'Jason'
p2990
sg12
S'Fried Rice'
p2991
sg14
(lp2992
(iIngredients
Ingredient
p2993
(dp2994
g12
g538
sg19
I00
sg20
g21
sg22
I00
sg23
g539
sg25
g540
sg27
I1
sg28
I01
sg29
S'cups'
p2995
sg31
F3.0
sba(iIngredients
Ingredient
p2996
(dp2997
g12
g2928
sg19
I00
sg20
g2929
sg22
I00
sg23
g2930
sg25
g2931
sg27
I1
sg28
I00
sg29
S'lbs'
p2998
sg31
F2.0
sba(iIngredients
Ingredient
p2999
(dp3000
g12
g2457
sg19
I01
sg20
g21
sg22
I00
sg23
g2458
sg25
g2459
sg27
I1
sg28
I00
sg29
S'lb'
p3001
sg31
F1.0
sba(iIngredients
Ingredient
p3002
(dp3003
g12
g801
sg19
I00
sg20
g802
sg22
I00
sg23
g803
sg25
g804
sg27
I1
sg28
I01
sg29
S'units'
p3004
sg31
F12.0
sba(iIngredients
Ingredient
p3005
(dp3006
g12
g51
sg19
I00
sg20
g21
sg22
I00
sg23
g52
sg25
g36
sg27
I1
sg28
I00
sg29
S'cloves'
p3007
sg31
F5.0
sba(iIngredients
Ingredient
p3008
(dp3009
g12
g1288
sg19
I00
sg20
g21
sg22
I00
sg23
g1289
sg25
g1290
sg27
I1
sg28
I00
sg29
S'unit'
p3010
sg31
F1.0
sba(iIngredients
Ingredient
p3011
(dp3012
g12
g1407
sg19
I00
sg20
g21
sg22
I00
sg23
g1408
sg25
g1409
sg27
I1
sg28
I00
sg29
S'units'
p3013
sg31
F5.0
sba(iIngredients
Ingredient
p3014
(dp3015
g12
g2640
sg19
I00
sg20
g21
sg22
I00
sg23
g2641
sg25
g2642
sg27
I1
sg28
I00
sg29
S'bags'
p3016
sg31
F2.0
sba(iIngredients
Ingredient
p3017
(dp3018
g12
g850
sg19
I00
sg20
g21
sg22
I00
sg23
g851
sg25
g852
sg27
I1
sg28
I00
sg29
S'oz'
p3019
sg31
F24.0
sba(iIngredients
Ingredient
p3020
(dp3021
g12
g1273
sg19
I00
sg20
g21
sg22
I00
sg23
g1274
sg25
g1275
sg27
I1
sg28
I01
sg29
S'to taste'
p3022
sg31
F1.0
sba(iIngredients
Ingredient
p3023
(dp3024
g12
g2478
sg19
I00
sg20
g21
sg22
I00
sg23
g2479
sg25
g2480
sg27
I1
sg28
I01
sg29
S'to taste'
p3025
sg31
F1.0
sba(iIngredients
Ingredient
p3026
(dp3027
g12
g2487
sg19
I00
sg20
g21
sg22
I00
sg23
g2488
sg25
g2489
sg27
I1
sg28
I01
sg29
S'Tbs'
p3028
sg31
F1.0
sba(iIngredients
Ingredient
p3029
(dp3030
g12
g1343
sg19
I00
sg20
g21
sg22
I00
sg23
g1344
sg25
g1345
sg27
I1
sg28
I01
sg29
S'Tbs'
p3031
sg31
F1.0
sbasg76
I01
sg77
(lp3032
g127
asg90
(lp3033
S'Make fried rice\r'
p3034
asg95
Nsg100
I5
sg101
I40
sg103
S'Chinese'
p3035
sg20
g2929
sg106
g962
sba(iRecipe
Recipe
p3036
(dp3037
g7
I4
sg9
I00
sg10
S'Emily'
p3038
sg12
S'Thai Peanut Sauce'
p3039
sg14
(lp3040
(iIngredients
Ingredient
p3041
(dp3042
g12
S'Wide Rice Noodles'
p3043
sg19
I00
sg20
g21
sg22
I00
sg23
S'International:EastAsian'
p3044
sg25
S'sufw'
p3045
sg27
I1
sg28
I00
sg29
S'lb'
p3046
sg31
F2.0
sba(iIngredients
Ingredient
p3047
(dp3048
g12
g1273
sg19
I00
sg20
g21
sg22
I00
sg23
g1274
sg25
g1275
sg27
I1
sg28
I01
sg29
S'to taste'
p3049
sg31
F1.0
sba(iIngredients
Ingredient
p3050
(dp3051
g12
g1306
sg19
I00
sg20
g1307
sg22
I01
sg23
g1308
sg25
g1309
sg27
I1
sg28
I00
sg29
S'lb'
p3052
sg31
F2.0
sba(iIngredients
Ingredient
p3053
(dp3054
g12
g272
sg19
I00
sg20
g21
sg22
I00
sg23
g273
sg25
g274
sg27
I1
sg28
I00
sg29
S'units'
p3055
sg31
F4.0
sba(iIngredients
Ingredient
p3056
(dp3057
g12
g2376
sg19
I01
sg20
g21
sg22
I00
sg23
g2377
sg25
g2378
sg27
I1
sg28
I00
sg29
S'units'
p3058
sg31
F4.0
sba(iIngredients
Ingredient
p3059
(dp3060
g12
g1503
sg19
I01
sg20
g21
sg22
I00
sg23
g1504
sg25
g1505
sg27
I1
sg28
I00
sg29
S'bunce'
p3061
sg31
F1.0
sba(iIngredients
Ingredient
p3062
(dp3063
g12
S'Peanuts'
p3064
sg19
I00
sg20
g21
sg22
I00
sg23
S'WholeNuts'
p3065
sg25
S'sufw'
p3066
sg27
I1
sg28
I01
sg29
S'to taste'
p3067
sg31
F1.0
sba(iIngredients
Ingredient
p3068
(dp3069
g12
S'Wegmans Thai Peanut Sauce'
p3070
sg19
I00
sg20
g21
sg22
I00
sg23
S'International:EastAsian'
p3071
sg25
S'sufw'
p3072
sg27
I1
sg28
I01
sg29
S'bottle'
p3073
sg31
F1.0
sba(iIngredients
Ingredient
p3074
(dp3075
g12
g2478
sg19
I00
sg20
g21
sg22
I00
sg23
g2479
sg25
g2480
sg27
I1
sg28
I01
sg29
S'to taste'
p3076
sg31
F1.0
sba(iIngredients
Ingredient
p3077
(dp3078
g12
g51
sg19
I00
sg20
g21
sg22
I00
sg23
g52
sg25
g36
sg27
I1
sg28
I00
sg29
S'cloves'
p3079
sg31
F8.0
sba(iIngredients
Ingredient
p3080
(dp3081
g12
g926
sg19
I00
sg20
g21
sg22
I00
sg23
g927
sg25
g928
sg27
I1
sg28
I01
sg29
S'Tbs'
p3082
sg31
F2.0
sba(iIngredients
Ingredient
p3083
(dp3084
g12
g1288
sg19
I00
sg20
g21
sg22
I00
sg23
g1289
sg25
g1290
sg27
I1
sg28
I00
sg29
S'unit'
p3085
sg31
F1.0
sba(iIngredients
Ingredient
p3086
(dp3087
g12
S'Sesame Oil'
p3088
sg19
I00
sg20
g21
sg22
I00
sg23
S'Baking'
p3089
sg25
S'sufw'
p3090
sg27
I1
sg28
I01
sg29
S'to taste'
p3091
sg31
F1.0
sba(iIngredients
Ingredient
p3092
(dp3093
g12
g602
sg19
I00
sg20
g21
sg22
I00
sg23
g603
sg25
g604
sg27
I1
sg28
I00
sg29
S'units'
p3094
sg31
F3.0
sbasg76
I01
sg77
(lp3095
g79
ag127
ag87
asg90
(lp3096
S'Make Sauce\r'
p3097
asg95
Nsg100
I6
sg101
I50
sg103
S'Thai'
p3098
sg20
g1307
sg106
g962
sba(iRecipe
Recipe
p3099
(dp3100
g7
I5
sg9
I00
sg10
S'Emily'
p3101
sg12
S'Pad Thai'
p3102
sg14
(lp3103
(iIngredients
Ingredient
p3104
(dp3105
g12
S'Rice Noodles'
p3106
sg19
I00
sg20
g21
sg22
I00
sg23
S'International:EastAsian'
p3107
sg25
S'sufw'
p3108
sg27
I1
sg28
I00
sg29
S'lb'
p3109
sg31
F2.0
sba(iIngredients
Ingredient
p3110
(dp3111
g12
g1306
sg19
I00
sg20
g1307
sg22
I01
sg23
g1308
sg25
g1309
sg27
I1
sg28
I00
sg29
S'family pack'
p3112
sg31
F1.0
sba(iIngredients
Ingredient
p3113
(dp3114
g12
S'Tamarind Paste'
p3115
sg19
I00
sg20
g21
sg22
I00
sg23
S'International:Indian'
p3116
sg25
S'sufw'
p3117
sg27
I1
sg28
I01
sg29
S'Tbs'
p3118
sg31
F3.0
sba(iIngredients
Ingredient
p3119
(dp3120
g12
S'Brown Sugar'
p3121
sg19
I00
sg20
g21
sg22
I00
sg23
S'Baking'
p3122
sg25
S'sufw'
p3123
sg27
I1
sg28
I01
sg29
S'Tbs'
p3124
sg31
F2.0
sba(iIngredients
Ingredient
p3125
(dp3126
g12
S'Fish Sauce'
p3127
sg19
I00
sg20
g21
sg22
I00
sg23
S'International:EastAsian'
p3128
sg25
S'sufw'
p3129
sg27
I1
sg28
I00
sg29
S'bottle'
p3130
sg31
F1.0
sba(iIngredients
Ingredient
p3131
(dp3132
g12
S'Oyster Sauce'
p3133
sg19
I00
sg20
g21
sg22
I00
sg23
S'International:EastAsian'
p3134
sg25
S'sufw'
p3135
sg27
I1
sg28
I00
sg29
S'bottle'
p3136
sg31
F1.0
sba(iIngredients
Ingredient
p3137
(dp3138
g12
g1273
sg19
I00
sg20
g21
sg22
I00
sg23
g1274
sg25
g1275
sg27
I1
sg28
I01
sg29
S'to taste'
p3139
sg31
F1.0
sba(iIngredients
Ingredient
p3140
(dp3141
g12
g266
sg19
I00
sg20
g21
sg22
I00
sg23
g267
sg25
g268
sg27
I1
sg28
I00
sg29
S'unit'
p3142
sg31
F1.0
sba(iIngredients
Ingredient
p3143
(dp3144
g12
g51
sg19
I00
sg20
g21
sg22
I00
sg23
g52
sg25
g36
sg27
I1
sg28
I00
sg29
S'cloves'
p3145
sg31
F6.0
sba(iIngredients
Ingredient
p3146
(dp3147
g12
g801
sg19
I00
sg20
g802
sg22
I00
sg23
g803
sg25
g804
sg27
I1
sg28
I01
sg29
S'units'
p3148
sg31
F6.0
sba(iIngredients
Ingredient
p3149
(dp3150
g12
g2466
sg19
I00
sg20
g21
sg22
I00
sg23
g2467
sg25
g2468
sg27
I1
sg28
I00
sg29
S'cans'
p3151
sg31
F2.0
sba(iIngredients
Ingredient
p3152
(dp3153
g12
g3064
sg19
I00
sg20
g21
sg22
I00
sg23
g3065
sg25
g3066
sg27
I1
sg28
I01
sg29
S'cups'
p3154
sg31
F0.5
sba(iIngredients
Ingredient
p3155
(dp3156
g12
g1485
sg19
I00
sg20
g21
sg22
I00
sg23
g1486
sg25
g1487
sg27
I1
sg28
I00
sg29
S'units'
p3157
sg31
F2.0
sba(iIngredients
Ingredient
p3158
(dp3159
g12
g397
sg19
I00
sg20
g21
sg22
I00
sg23
g398
sg25
g399
sg27
I1
sg28
I01
sg29
S'to taste'
p3160
sg31
F1.0
sbasg76
I01
sg77
(lp3161
g79
ag127
asg90
(lp3162
S'Make pad thai\r'
p3163
asg95
Nsg100
I5
sg101
I60
sg103
S'Thai'
p3164
sg20
g1307
sg106
g962
sba(iRecipe
Recipe
p3165
(dp3166
g7
I4
sg9
I01
sg10
S'Jason'
p3167
sg12
S'Beef and Broccoli'
p3168
sg14
(lp3169
(iIngredients
Ingredient
p3170
(dp3171
g12
g3133
sg19
I00
sg20
g21
sg22
I00
sg23
g3134
sg25
g3135
sg27
I1
sg28
I00
sg29
S'bottles'
p3172
sg31
F4.0
sba(iIngredients
Ingredient
p3173
(dp3174
g12
g3088
sg19
I00
sg20
g21
sg22
I00
sg23
g3089
sg25
g3090
sg27
I1
sg28
I01
sg29
S'to taste'
p3175
sg31
F1.0
sba(iIngredients
Ingredient
p3176
(dp3177
g12
g1394
sg19
I00
sg20
g1395
sg22
I01
sg23
g1396
sg25
g1397
sg27
I1
sg28
I00
sg29
S'unit'
p3178
sg31
F1.0
sba(iIngredients
Ingredient
p3179
(dp3180
g12
g2478
sg19
I00
sg20
g21
sg22
I00
sg23
g2479
sg25
g2480
sg27
I1
sg28
I01
sg29
S'to taste'
p3181
sg31
F1.0
sba(iIngredients
Ingredient
p3182
(dp3183
g12
g3121
sg19
I00
sg20
g21
sg22
I00
sg23
g3122
sg25
g3123
sg27
I1
sg28
I01
sg29
S'tsp'
p3184
sg31
F3.0
sba(iIngredients
Ingredient
p3185
(dp3186
g12
g2143
sg19
I00
sg20
g21
sg22
I00
sg23
g2144
sg25
g2145
sg27
I1
sg28
I01
sg29
S'tsp'
p3187
sg31
F3.0
sba(iIngredients
Ingredient
p3188
(dp3189
g12
g1273
sg19
I00
sg20
g21
sg22
I00
sg23
g1274
sg25
g1275
sg27
I1
sg28
I01
sg29
S'to taste'
p3190
sg31
F1.0
sba(iIngredients
Ingredient
p3191
(dp3192
g12
g1288
sg19
I00
sg20
g21
sg22
I00
sg23
g1289
sg25
g1290
sg27
I1
sg28
I00
sg29
S'unit'
p3193
sg31
F1.0
sba(iIngredients
Ingredient
p3194
(dp3195
g12
g51
sg19
I00
sg20
g21
sg22
I00
sg23
g52
sg25
g36
sg27
I1
sg28
I00
sg29
S'cloves'
p3196
sg31
F5.0
sba(iIngredients
Ingredient
p3197
(dp3198
g12
S'Broccoli'
p3199
sg19
I00
sg20
g21
sg22
I00
sg23
S'Produce:Front'
p3200
sg25
S'sufw'
p3201
sg27
I1
sg28
I00
sg29
S'lb'
p3202
sg31
F1.0
sbasg76
I01
sg77
(lp3203
g130
asg90
(lp3204
S'Make beef and broccoli\r'
p3205
asg95
Nsg100
I9
sg101
I120
sg103
S'Chinese'
p3206
sg20
g1395
sg106
g962
sba(iRecipe
Recipe
p3207
(dp3208
g7
I4
sg9
I00
sg10
S'Emily'
p3209
sg12
S'Pad See Ew'
p3210
sg14
(lp3211
(iIngredients
Ingredient
p3212
(dp3213
g12
g3043
sg19
I00
sg20
g21
sg22
I00
sg23
g3044
sg25
g3045
sg27
I1
sg28
I00
sg29
S'lb'
p3214
sg31
F2.0
sba(iIngredients
Ingredient
p3215
(dp3216
g12
g2478
sg19
I00
sg20
g21
sg22
I00
sg23
g2479
sg25
g2480
sg27
I1
sg28
I01
sg29
S'to taste'
p3217
sg31
F1.0
sba(iIngredients
Ingredient
p3218
(dp3219
g12
g3133
sg19
I00
sg20
g21
sg22
I00
sg23
g3134
sg25
g3135
sg27
I1
sg28
I00
sg29
S'bottles'
p3220
sg31
F3.0
sba(iIngredients
Ingredient
p3221
(dp3222
g12
g3121
sg19
I00
sg20
g21
sg22
I00
sg23
g3122
sg25
g3123
sg27
I1
sg28
I01
sg29
S'Tbs'
p3223
sg31
F2.0
sba(iIngredients
Ingredient
p3224
(dp3225
g12
g1273
sg19
I00
sg20
g21
sg22
I00
sg23
g1274
sg25
g1275
sg27
I1
sg28
I01
sg29
S'to taste'
p3226
sg31
F1.0
sba(iIngredients
Ingredient
p3227
(dp3228
g12
g51
sg19
I00
sg20
g21
sg22
I00
sg23
g52
sg25
g36
sg27
I1
sg28
I00
sg29
S'cloves'
p3229
sg31
F6.0
sba(iIngredients
Ingredient
p3230
(dp3231
g12
g1306
sg19
I00
sg20
g1307
sg22
I01
sg23
g1308
sg25
g1309
sg27
I1
sg28
I00
sg29
S'family pack'
p3232
sg31
F1.0
sba(iIngredients
Ingredient
p3233
(dp3234
g12
g801
sg19
I00
sg20
g802
sg22
I00
sg23
g803
sg25
g804
sg27
I1
sg28
I01
sg29
S'units'
p3235
sg31
F3.0
sba(iIngredients
Ingredient
p3236
(dp3237
g12
S'Chinese Broccoli'
p3238
sg19
I01
sg20
g21
sg22
I00
sg23
S'Produce:Asian'
p3239
sg25
S'sufw'
p3240
sg27
I1
sg28
I00
sg29
S'lb'
p3241
sg31
F1.0
sbasg76
I01
sg77
(lp3242
g79
ag127
asg90
(lp3243
S'Make Pad See Ew\r'
p3244
asg95
Nsg100
I6
sg101
I90
sg103
S'Thai'
p3245
sg20
g1307
sg106
g962
sba(iRecipe
Recipe
p3246
(dp3247
g7
I5
sg9
I01
sg10
S'Emily'
p3248
sg12
S'Drunken Noodle'
p3249
sg14
(lp3250
(iIngredients
Ingredient
p3251
(dp3252
g12
g3133
sg19
I00
sg20
g21
sg22
I00
sg23
g3134
sg25
g3135
sg27
I1
sg28
I00
sg29
S'bottles'
p3253
sg31
F4.0
sba(iIngredients
Ingredient
p3254
(dp3255
g12
g2478
sg19
I00
sg20
g21
sg22
I00
sg23
g2479
sg25
g2480
sg27
I1
sg28
I01
sg29
S'to taste'
p3256
sg31
F1.0
sba(iIngredients
Ingredient
p3257
(dp3258
g12
g3127
sg19
I00
sg20
g21
sg22
I00
sg23
g3128
sg25
g3129
sg27
I1
sg28
I00
sg29
S'bottle'
p3259
sg31
F1.0
sba(iIngredients
Ingredient
p3260
(dp3261
g12
g3121
sg19
I00
sg20
g21
sg22
I00
sg23
g3122
sg25
g3123
sg27
I1
sg28
I01
sg29
S'Tbs'
p3262
sg31
F2.0
sba(iIngredients
Ingredient
p3263
(dp3264
g12
g602
sg19
I00
sg20
g21
sg22
I00
sg23
g603
sg25
g604
sg27
I1
sg28
I00
sg29
S'units'
p3265
sg31
F10.0
sba(iIngredients
Ingredient
p3266
(dp3267
g12
g51
sg19
I00
sg20
g21
sg22
I00
sg23
g52
sg25
g36
sg27
I1
sg28
I00
sg29
S'cloves'
p3268
sg31
F8.0
sba(iIngredients
Ingredient
p3269
(dp3270
g12
S'Thai Basil'
p3271
sg19
I00
sg20
g21
sg22
I00
sg23
S'Produce'
p3272
sg25
S'sufw'
p3273
sg27
I1
sg28
I00
sg29
S'leaves'
p3274
sg31
F8.0
sba(iIngredients
Ingredient
p3275
(dp3276
g12
g1273
sg19
I00
sg20
g21
sg22
I00
sg23
g1274
sg25
g1275
sg27
I1
sg28
I01
sg29
S'to taste'
p3277
sg31
F1.0
sba(iIngredients
Ingredient
p3278
(dp3279
g12
g801
sg19
I00
sg20
g802
sg22
I00
sg23
g803
sg25
g804
sg27
I1
sg28
I01
sg29
S'units'
p3280
sg31
F6.0
sba(iIngredients
Ingredient
p3281
(dp3282
g12
g1407
sg19
I00
sg20
g21
sg22
I00
sg23
g1408
sg25
g1409
sg27
I1
sg28
I00
sg29
S'units'
p3283
sg31
F4.0
sba(iIngredients
Ingredient
p3284
(dp3285
g12
g2351
sg19
I00
sg20
g2352
sg22
I00
sg23
g2353
sg25
g2354
sg27
I1
sg28
I00
sg29
S'bag'
p3286
sg31
F1.0
sba(iIngredients
Ingredient
p3287
(dp3288
g12
g1306
sg19
I00
sg20
g1307
sg22
I01
sg23
g1308
sg25
g1309
sg27
I1
sg28
I00
sg29
S'family pack'
p3289
sg31
F1.0
sba(iIngredients
Ingredient
p3290
(dp3291
g12
g266
sg19
I00
sg20
g21
sg22
I00
sg23
g267
sg25
g268
sg27
I1
sg28
I00
sg29
S'unit'
p3292
sg31
F1.0
sba(iIngredients
Ingredient
p3293
(dp3294
g12
g3043
sg19
I00
sg20
g21
sg22
I00
sg23
g3044
sg25
g3045
sg27
I1
sg28
I00
sg29
S'lb'
p3295
sg31
F1.5
sba(iIngredients
Ingredient
p3296
(dp3297
g12
S'Grape Tomatoes'
p3298
sg19
I00
sg20
g21
sg22
I00
sg23
S'Produce:Middle'
p3299
sg25
S'sufw'
p3300
sg27
I1
sg28
I00
sg29
S'box'
p3301
sg31
F1.0
sba(iIngredients
Ingredient
p3302
(dp3303
g12
g590
sg19
I00
sg20
g21
sg22
I00
sg23
g591
sg25
g592
sg27
I1
sg28
I00
sg29
S'units'
p3304
sg31
F2.0
sba(iIngredients
Ingredient
p3305
(dp3306
g12
g2466
sg19
I00
sg20
g21
sg22
I00
sg23
g2467
sg25
g2468
sg27
I1
sg28
I00
sg29
S'can'
p3307
sg31
F1.0
sba(iIngredients
Ingredient
p3308
(dp3309
g12
g2376
sg19
I01
sg20
g21
sg22
I00
sg23
g2377
sg25
g2378
sg27
I1
sg28
I00
sg29
S'bunches'
p3310
sg31
F3.0
sbasg76
I01
sg77
(lp3311
g127
ag2387
asg90
(lp3312
S'Make Dunken noodles\r'
p3313
asg95
Nsg100
I6
sg101
I60
sg103
S'Thai'
p3314
sg20
g802
sg106
g962
sba(iRecipe
Recipe
p3315
(dp3316
g7
I2
sg9
I01
sg10
S'Emily'
p3317
sg12
S'Lamb with Roasted Nuts'
p3318
sg14
(lp3319
(iIngredients
Ingredient
p3320
(dp3321
g12
g210
sg19
I00
sg20
g21
sg22
I00
sg23
g211
sg25
g145
sg27
I1
sg28
I01
sg29
S'Tbs'
p3322
sg31
F2.0
sba(iIngredients
Ingredient
p3323
(dp3324
g12
g51
sg19
I00
sg20
g21
sg22
I00
sg23
g52
sg25
g36
sg27
I1
sg28
I00
sg29
S'cloves'
p3325
sg31
F2.0
sba(iIngredients
Ingredient
p3326
(dp3327
g12
g1288
sg19
I00
sg20
g21
sg22
I00
sg23
g1289
sg25
g1290
sg27
I1
sg28
I00
sg29
S'unit'
p3328
sg31
F1.0
sba(iIngredients
Ingredient
p3329
(dp3330
g12
g1376
sg19
I00
sg20
g21
sg22
I00
sg23
g1377
sg25
g1378
sg27
I1
sg28
I01
sg29
S'unit'
p3331
sg31
F1.0
sba(iIngredients
Ingredient
p3332
(dp3333
g12
S'Lamb'
p3334
sg19
I00
sg20
S'Mutton'
p3335
sg22
I00
sg23
S'Meat'
p3336
sg25
S'sufw'
p3337
sg27
I1
sg28
I00
sg29
S'lb'
p3338
sg31
F2.0
sba(iIngredients
Ingredient
p3339
(dp3340
g12
g266
sg19
I00
sg20
g21
sg22
I00
sg23
g267
sg25
g268
sg27
I1
sg28
I00
sg29
S'units'
p3341
sg31
F2.0
sba(iIngredients
Ingredient
p3342
(dp3343
g12
S'Lemon'
p3344
sg19
I00
sg20
g21
sg22
I00
sg23
S'Produce:Middle'
p3345
sg25
S'uf'
p3346
sg27
I1
sg28
I00
sg29
S'unit'
p3347
sg31
F1.0
sba(iIngredients
Ingredient
p3348
(dp3349
g12
g1503
sg19
I01
sg20
g21
sg22
I00
sg23
g1504
sg25
g1505
sg27
I1
sg28
I00
sg29
S'bunch'
p3350
sg31
F1.0
sba(iIngredients
Ingredient
p3351
(dp3352
g12
g56
sg19
I00
sg20
g21
sg22
I00
sg23
g57
sg25
g58
sg27
I1
sg28
I01
sg29
S'to taste'
p3353
sg31
F1.0
sba(iIngredients
Ingredient
p3354
(dp3355
g12
g233
sg19
I00
sg20
g21
sg22
I00
sg23
g234
sg25
g145
sg27
I1
sg28
I01
sg29
S'to taste'
p3356
sg31
F1.0
sba(iIngredients
Ingredient
p3357
(dp3358
g12
g801
sg19
I00
sg20
g802
sg22
I00
sg23
g803
sg25
g804
sg27
I1
sg28
I01
sg29
S'units'
p3359
sg31
F4.0
sba(iIngredients
Ingredient
p3360
(dp3361
g12
S'Almonds'
p3362
sg19
I00
sg20
g21
sg22
I00
sg23
S'WholeNuts'
p3363
sg25
S'sufw'
p3364
sg27
I1
sg28
I01
sg29
S'cup'
p3365
sg31
F1.0
sbasg76
I01
sg77
(lp3366
g127
asg90
(lp3367
S'Make Lamb\r'
p3368
asg95
Nsg100
I7
sg101
I60
sg103
S'African'
p3369
sg20
g3335
sg106
g962
sba(iRecipe
Recipe
p3370
(dp3371
g7
I4
sg9
I01
sg10
S'Jason'
p3372
sg12
S'Chicken Kadai'
p3373
sg14
(lp3374
(iIngredients
Ingredient
p3375
(dp3376
g12
g1306
sg19
I00
sg20
g1307
sg22
I01
sg23
g1308
sg25
g1309
sg27
I1
sg28
I00
sg29
S'lb'
p3377
sg31
F3.0
sba(iIngredients
Ingredient
p3378
(dp3379
g12
g1349
sg19
I00
sg20
g21
sg22
I00
sg23
g1350
sg25
g1351
sg27
I1
sg28
I00
sg29
S'box'
p3380
sg31
F1.0
sba(iIngredients
Ingredient
p3381
(dp3382
g12
g266
sg19
I00
sg20
g21
sg22
I00
sg23
g267
sg25
g268
sg27
I1
sg28
I00
sg29
S'units'
p3383
sg31
F2.0
sba(iIngredients
Ingredient
p3384
(dp3385
g12
g51
sg19
I00
sg20
g21
sg22
I00
sg23
g52
sg25
g36
sg27
I1
sg28
I00
sg29
S'cloves'
p3386
sg31
F5.0
sba(iIngredients
Ingredient
p3387
(dp3388
g12
g1288
sg19
I00
sg20
g21
sg22
I00
sg23
g1289
sg25
g1290
sg27
I1
sg28
I00
sg29
S'unit'
p3389
sg31
F1.0
sba(iIngredients
Ingredient
p3390
(dp3391
g12
g1376
sg19
I00
sg20
g21
sg22
I00
sg23
g1377
sg25
g1378
sg27
I1
sg28
I01
sg29
S'Tbs'
p3392
sg31
F3.0
sba(iIngredients
Ingredient
p3393
(dp3394
g12
g233
sg19
I00
sg20
g21
sg22
I00
sg23
g234
sg25
g145
sg27
I1
sg28
I01
sg29
S'tsp'
p3395
sg31
F1.0
sba(iIngredients
Ingredient
p3396
(dp3397
g12
g397
sg19
I00
sg20
g21
sg22
I00
sg23
g398
sg25
g399
sg27
I1
sg28
I01
sg29
S't'
p3398
sg31
F1.0
sba(iIngredients
Ingredient
p3399
(dp3400
g12
g1998
sg19
I00
sg20
g21
sg22
I00
sg23
g1999
sg25
g2000
sg27
I1
sg28
I01
sg29
S'tsp'
p3401
sg31
F1.0
sba(iIngredients
Ingredient
p3402
(dp3403
g12
g1626
sg19
I00
sg20
g21
sg22
I00
sg23
g1627
sg25
g1628
sg27
I1
sg28
I01
sg29
S'units'
p3404
sg31
F4.0
sba(iIngredients
Ingredient
p3405
(dp3406
g12
S'Indian Red Chili Peppers'
p3407
sg19
I00
sg20
g21
sg22
I00
sg23
S'Produce:LeftSide'
p3408
sg25
S'sufw'
p3409
sg27
I1
sg28
I00
sg29
S'units'
p3410
sg31
F4.0
sba(iIngredients
Ingredient
p3411
(dp3412
g12
g1273
sg19
I00
sg20
g21
sg22
I00
sg23
g1274
sg25
g1275
sg27
I1
sg28
I01
sg29
S'to taste'
p3413
sg31
F1.0
sbasg76
I01
sg77
(lp3414
g127
ag417
asg90
(lp3415
S'Make Kadai\r'
p3416
asg95
Nsg100
I3
sg101
I60
sg103
S'Indian'
p3417
sg20
g1307
sg106
g962
sba(iRecipe
Recipe
p3418
(dp3419
g7
I5
sg9
I01
sg10
S'Jason'
p3420
sg12
S'Saag'
p3421
sg14
(lp3422
(iIngredients
Ingredient
p3423
(dp3424
g12
S'Frozen Spinach'
p3425
sg19
I00
sg20
g21
sg22
I00
sg23
S'Frozen:Vegetable'
p3426
sg25
S'sufw'
p3427
sg27
I1
sg28
I00
sg29
S'oz'
p3428
sg31
F36.0
sba(iIngredients
Ingredient
p3429
(dp3430
g12
g1306
sg19
I00
sg20
g1307
sg22
I01
sg23
g1308
sg25
g1309
sg27
I1
sg28
I00
sg29
S'lb'
p3431
sg31
F2.0
sba(iIngredients
Ingredient
p3432
(dp3433
g12
g1761
sg19
I00
sg20
g21
sg22
I00
sg23
g1762
sg25
g1763
sg27
I1
sg28
I00
sg29
S'cans'
p3434
sg31
F2.0
sba(iIngredients
Ingredient
p3435
(dp3436
g12
g266
sg19
I00
sg20
g21
sg22
I00
sg23
g267
sg25
g268
sg27
I1
sg28
I00
sg29
S'units'
p3437
sg31
F2.0
sba(iIngredients
Ingredient
p3438
(dp3439
g12
g1349
sg19
I00
sg20
g21
sg22
I00
sg23
g1350
sg25
g1351
sg27
I1
sg28
I00
sg29
S'units'
p3440
sg31
F8.0
sba(iIngredients
Ingredient
p3441
(dp3442
g12
g51
sg19
I00
sg20
g21
sg22
I00
sg23
g52
sg25
g36
sg27
I1
sg28
I00
sg29
S'to taste'
p3443
sg31
F1.0
sba(iIngredients
Ingredient
p3444
(dp3445
g12
g1288
sg19
I00
sg20
g21
sg22
I00
sg23
g1289
sg25
g1290
sg27
I1
sg28
I00
sg29
S'to taste'
p3446
sg31
F1.0
sba(iIngredients
Ingredient
p3447
(dp3448
g12
g614
sg19
I00
sg20
g21
sg22
I00
sg23
g615
sg25
g616
sg27
I1
sg28
I01
sg29
S'to taste'
p3449
sg31
F1.0
sba(iIngredients
Ingredient
p3450
(dp3451
g12
g1376
sg19
I00
sg20
g21
sg22
I00
sg23
g1377
sg25
g1378
sg27
I1
sg28
I01
sg29
S'to taste'
p3452
sg31
F1.0
sba(iIngredients
Ingredient
p3453
(dp3454
g12
g397
sg19
I00
sg20
g21
sg22
I00
sg23
g398
sg25
g399
sg27
I1
sg28
I01
sg29
S'to taste'
p3455
sg31
F1.0
sba(iIngredients
Ingredient
p3456
(dp3457
g12
g1343
sg19
I00
sg20
g21
sg22
I00
sg23
g1344
sg25
g1345
sg27
I1
sg28
I01
sg29
S'to taste'
p3458
sg31
F1.0
sba(iIngredients
Ingredient
p3459
(dp3460
g12
g210
sg19
I00
sg20
g21
sg22
I00
sg23
g211
sg25
g145
sg27
I1
sg28
I01
sg29
S'sticks'
p3461
sg31
F2.0
sba(iIngredients
Ingredient
p3462
(dp3463
g12
g1273
sg19
I00
sg20
g21
sg22
I00
sg23
g1274
sg25
g1275
sg27
I1
sg28
I01
sg29
S'Tbs'
p3464
sg31
F2.0
sbasg76
I01
sg77
(lp3465
g127
ag87
asg90
(lp3466
S'Make Saag\r'
p3467
asg95
Nsg100
I8
sg101
I60
sg103
S'Indian'
p3468
sg20
g1307
sg106
g962
sba(iRecipe
Recipe
p3469
(dp3470
g7
I4
sg9
I01
sg10
S'Jason'
p3471
sg12
S'Pork and Beans'
p3472
sg14
(lp3473
(iIngredients
Ingredient
p3474
(dp3475
g12
S'Pork Loin Roast'
p3476
sg19
I00
sg20
S'Pork'
p3477
sg22
I00
sg23
S'Meat'
p3478
sg25
S'sufw'
p3479
sg27
I1
sg28
I00
sg29
S'lb'
p3480
sg31
F3.0
sba(iIngredients
Ingredient
p3481
(dp3482
g12
g569
sg19
I00
sg20
g21
sg22
I00
sg23
g570
sg25
g571
sg27
I1
sg28
I00
sg29
S'cans'
p3483
sg31
F3.0
sba(iIngredients
Ingredient
p3484
(dp3485
g12
g266
sg19
I00
sg20
g21
sg22
I00
sg23
g267
sg25
g268
sg27
I1
sg28
I00
sg29
S'units'
p3486
sg31
F3.0
sba(iIngredients
Ingredient
p3487
(dp3488
g12
g51
sg19
I00
sg20
g21
sg22
I00
sg23
g52
sg25
g36
sg27
I1
sg28
I00
sg29
S'coves'
p3489
sg31
F6.0
sba(iIngredients
Ingredient
p3490
(dp3491
g12
g3121
sg19
I00
sg20
g21
sg22
I00
sg23
g3122
sg25
g3123
sg27
I1
sg28
I01
sg29
S'Tbs'
p3492
sg31
F2.0
sba(iIngredients
Ingredient
p3493
(dp3494
g12
g2358
sg19
I00
sg20
g21
sg22
I00
sg23
g2359
sg25
g2360
sg27
I1
sg28
I01
sg29
S'cup'
p3495
sg31
F1.0
sba(iIngredients
Ingredient
p3496
(dp3497
g12
g397
sg19
I00
sg20
g21
sg22
I00
sg23
g398
sg25
g399
sg27
I1
sg28
I01
sg29
S'to taste'
p3498
sg31
F1.0
sba(iIngredients
Ingredient
p3499
(dp3500
g12
g233
sg19
I00
sg20
g21
sg22
I00
sg23
g234
sg25
g145
sg27
I1
sg28
I01
sg29
S'to taste'
p3501
sg31
F1.0
sba(iIngredients
Ingredient
p3502
(dp3503
g12
g56
sg19
I00
sg20
g21
sg22
I00
sg23
g57
sg25
g58
sg27
I1
sg28
I01
sg29
S'to taste'
p3504
sg31
F1.0
sbasg76
I01
sg77
(lp3505
g127
asg90
(lp3506
S'Make Pork\r'
p3507
asg95
Nsg100
I5
sg101
I30
sg103
S'American'
p3508
sg20
g3477
sg106
g962
sba(iRecipe
Recipe
p3509
(dp3510
g7
I4
sg9
I01
sg10
S'Jason'
p3511
sg12
S'Singapore Rice Noodles'
p3512
sg14
(lp3513
(iIngredients
Ingredient
p3514
(dp3515
g12
g2898
sg19
I00
sg20
g21
sg22
I00
sg23
g2899
sg25
g2900
sg27
I1
sg28
I00
sg29
S'cups'
p3516
sg31
F2.0
sba(iIngredients
Ingredient
p3517
(dp3518
g12
g862
sg19
I00
sg20
g21
sg22
I00
sg23
g863
sg25
g864
sg27
I1
sg28
I00
sg29
S'cups'
p3519
sg31
F2.0
sba(iIngredients
Ingredient
p3520
(dp3521
g12
g2478
sg19
I00
sg20
g21
sg22
I00
sg23
g2479
sg25
g2480
sg27
I1
sg28
I01
sg29
S'Tbs'
p3522
sg31
F12.0
sba(iIngredients
Ingredient
p3523
(dp3524
g12
S'Curry Powder'
p3525
sg19
I00
sg20
g21
sg22
I00
sg23
S'Baking'
p3526
sg25
S'sufw'
p3527
sg27
I1
sg28
I01
sg29
S'tsp'
p3528
sg31
F2.0
sba(iIngredients
Ingredient
p3529
(dp3530
g12
g926
sg19
I00
sg20
g21
sg22
I00
sg23
g927
sg25
g928
sg27
I1
sg28
I01
sg29
S'tsp'
p3531
sg31
F4.0
sba(iIngredients
Ingredient
p3532
(dp3533
g12
g614
sg19
I00
sg20
g21
sg22
I00
sg23
g615
sg25
g616
sg27
I1
sg28
I01
sg29
S'tsp'
p3534
sg31
F1.0
sba(iIngredients
Ingredient
p3535
(dp3536
g12
g169
sg19
I00
sg20
g21
sg22
I00
sg23
g170
sg25
g145
sg27
I1
sg28
I01
sg29
S'tsp'
p3537
sg31
F0.5
sba(iIngredients
Ingredient
p3538
(dp3539
g12
g2493
sg19
I00
sg20
g21
sg22
I00
sg23
g2494
sg25
g2495
sg27
I1
sg28
I00
sg29
S'lb'
p3540
sg31
F2.0
sba(iIngredients
Ingredient
p3541
(dp3542
g12
g1306
sg19
I00
sg20
g1307
sg22
I01
sg23
g1308
sg25
g1309
sg27
I1
sg28
I00
sg29
S'lb'
p3543
sg31
F2.0
sba(iIngredients
Ingredient
p3544
(dp3545
g12
g801
sg19
I00
sg20
g802
sg22
I00
sg23
g803
sg25
g804
sg27
I1
sg28
I01
sg29
S'units'
p3546
sg31
F12.0
sba(iIngredients
Ingredient
p3547
(dp3548
g12
g2351
sg19
I00
sg20
g2352
sg22
I00
sg23
g2353
sg25
g2354
sg27
I1
sg28
I00
sg29
S'bag'
p3549
sg31
F1.0
sba(iIngredients
Ingredient
p3550
(dp3551
g12
g2376
sg19
I01
sg20
g21
sg22
I00
sg23
g2377
sg25
g2378
sg27
I1
sg28
I00
sg29
S'cup'
p3552
sg31
F1.0
sba(iIngredients
Ingredient
p3553
(dp3554
g12
g590
sg19
I00
sg20
g21
sg22
I00
sg23
g591
sg25
g592
sg27
I1
sg28
I00
sg29
S'cups'
p3555
sg31
F2.0
sbasg76
I01
sg77
(lp3556
g127
asg90
(lp3557
S'Make noodles\r'
p3558
asg95
Nsg100
I1
sg101
I50
sg103
S'Thai'
p3559
sg20
g1307
sg106
g962
sba(iRecipe
Recipe
p3560
(dp3561
g7
I5
sg9
I00
sg10
S'Jason'
p3562
sg12
S'Instant Pot Chicken Curry'
p3563
sg14
(lp3564
(iIngredients
Ingredient
p3565
(dp3566
g12
g2730
sg19
I00
sg20
g21
sg22
I00
sg23
g2731
sg25
g2732
sg27
I1
sg28
I01
sg29
S'tsp'
p3567
sg31
F1.5
sba(iIngredients
Ingredient
p3568
(dp3569
g12
g1788
sg19
I00
sg20
g21
sg22
I00
sg23
g1789
sg25
g1790
sg27
I1
sg28
I01
sg29
S'tsp'
p3570
sg31
F1.0
sba(iIngredients
Ingredient
p3571
(dp3572
g12
g2736
sg19
I00
sg20
g21
sg22
I00
sg23
g2737
sg25
g2738
sg27
I1
sg28
I01
sg29
S'pods'
p3573
sg31
F3.0
sba(iIngredients
Ingredient
p3574
(dp3575
g12
S'Nutmeg'
p3576
sg19
I00
sg20
g21
sg22
I00
sg23
S'Baking'
p3577
sg25
S'sufw'
p3578
sg27
I1
sg28
I01
sg29
S'tsp'
p3579
sg31
F0.5
sba(iIngredients
Ingredient
p3580
(dp3581
g12
S'Fennel'
p3582
sg19
I00
sg20
g21
sg22
I00
sg23
S'Baking'
p3583
sg25
S'sufw'
p3584
sg27
I1
sg28
I01
sg29
S'tsp'
p3585
sg31
F1.0
sba(iIngredients
Ingredient
p3586
(dp3587
g12
S'Anise'
p3588
sg19
I00
sg20
g21
sg22
I00
sg23
S'Baking'
p3589
sg25
S'sufw'
p3590
sg27
I1
sg28
I01
sg29
S'tsp'
p3591
sg31
F1.0
sba(iIngredients
Ingredient
p3592
(dp3593
g12
S'Ghee'
p3594
sg19
I00
sg20
g21
sg22
I00
sg23
S'Baking'
p3595
sg25
S'sufw'
p3596
sg27
I1
sg28
I01
sg29
S'Tbs'
p3597
sg31
F3.0
sba(iIngredients
Ingredient
p3598
(dp3599
g12
g1626
sg19
I00
sg20
g21
sg22
I00
sg23
g1627
sg25
g1628
sg27
I1
sg28
I01
sg29
S'leaf'
p3600
sg31
F1.0
sba(iIngredients
Ingredient
p3601
(dp3602
g12
S'Cinnamon Stick'
p3603
sg19
I00
sg20
g21
sg22
I00
sg23
S'Baking'
p3604
sg25
S'sufw'
p3605
sg27
I1
sg28
I01
sg29
S'piece'
p3606
sg31
F1.0
sba(iIngredients
Ingredient
p3607
(dp3608
g12
g614
sg19
I00
sg20
g21
sg22
I00
sg23
g615
sg25
g616
sg27
I1
sg28
I01
sg29
S'tsp'
p3609
sg31
F0.5
sba(iIngredients
Ingredient
p3610
(dp3611
g12
g266
sg19
I00
sg20
g21
sg22
I00
sg23
g267
sg25
g268
sg27
I1
sg28
I00
sg29
S'units'
p3612
sg31
F2.0
sba(iIngredients
Ingredient
p3613
(dp3614
g12
g51
sg19
I00
sg20
g21
sg22
I00
sg23
g52
sg25
g36
sg27
I1
sg28
I00
sg29
S'cloves'
p3615
sg31
F8.0
sba(iIngredients
Ingredient
p3616
(dp3617
g12
g1288
sg19
I00
sg20
g21
sg22
I00
sg23
g1289
sg25
g1290
sg27
I1
sg28
I00
sg29
S'piece'
p3618
sg31
F1.0
sba(iIngredients
Ingredient
p3619
(dp3620
g12
g1376
sg19
I00
sg20
g21
sg22
I00
sg23
g1377
sg25
g1378
sg27
I1
sg28
I01
sg29
S'Tbs'
p3621
sg31
F1.5
sba(iIngredients
Ingredient
p3622
(dp3623
g12
g1343
sg19
I00
sg20
g21
sg22
I00
sg23
g1344
sg25
g1345
sg27
I1
sg28
I01
sg29
S'tsp'
p3624
sg31
F1.0
sba(iIngredients
Ingredient
p3625
(dp3626
g12
g233
sg19
I00
sg20
g21
sg22
I00
sg23
g234
sg25
g145
sg27
I1
sg28
I01
sg29
S'to taste'
p3627
sg31
F1.0
sba(iIngredients
Ingredient
p3628
(dp3629
g12
g397
sg19
I00
sg20
g21
sg22
I00
sg23
g398
sg25
g399
sg27
I1
sg28
I01
sg29
S'to taste'
p3630
sg31
F1.0
sba(iIngredients
Ingredient
p3631
(dp3632
g12
g56
sg19
I00
sg20
g21
sg22
I00
sg23
g57
sg25
g58
sg27
I1
sg28
I01
sg29
S'to taste'
p3633
sg31
F1.0
sba(iIngredients
Ingredient
p3634
(dp3635
g12
g1306
sg19
I00
sg20
g1307
sg22
I01
sg23
g1308
sg25
g1309
sg27
I1
sg28
I00
sg29
S'lb'
p3636
sg31
F3.0
sba(iIngredients
Ingredient
p3637
(dp3638
g12
g783
sg19
I00
sg20
g21
sg22
I00
sg23
g784
sg25
g785
sg27
I1
sg28
I00
sg29
S'bag'
p3639
sg31
F1.0
sba(iIngredients
Ingredient
p3640
(dp3641
g12
g862
sg19
I00
sg20
g21
sg22
I00
sg23
g863
sg25
g864
sg27
I1
sg28
I00
sg29
S'small can'
p3642
sg31
F1.0
sba(iIngredients
Ingredient
p3643
(dp3644
g12
g1282
sg19
I00
sg20
g21
sg22
I00
sg23
g1283
sg25
g1284
sg27
I1
sg28
I00
sg29
S'Tbs'
p3645
sg31
F2.0
sba(iIngredients
Ingredient
p3646
(dp3647
g12
g1503
sg19
I01
sg20
g21
sg22
I00
sg23
g1504
sg25
g1505
sg27
I1
sg28
I00
sg29
S'bunch'
p3648
sg31
F1.0
sbasg76
I01
sg77
(lp3649
g127
ag417
asg90
(lp3650
S'Make food'
p3651
asg95
Nsg100
I7
sg101
I40
sg103
S'Indian'
p3652
sg20
g1307
sg106
(lp3653
sbasS'restriction_profiles'
p3654
(lp3655
g246
ag127
ag130
ag87
ag79
ag2387
a(iCommon
RestrictionProfile
p3656
(dp3657
g77
g81
sg82
g83
sg12
S'Soy'
p3658
sg85
g86
sbag417
asS'do_dessert'
p3659
I00
sS'all_ingredients'
p3660
(lp3661
g54
a(iIngredients
Ingredient
p3662
(dp3663
g12
S'Grapes'
p3664
sg19
I01
sg20
g21
sg22
I00
sg23
S'Produce:Front'
p3665
sg25
g58
sg27
I1
sg28
I00
sg29
g21
sg31
I0
sba(iIngredients
Ingredient
p3666
(dp3667
g12
S'Chocolate Chips'
p3668
sg19
I00
sg20
g21
sg22
I00
sg23
S'Baking'
p3669
sg25
g882
sg27
I1
sg28
I01
sg29
g21
sg31
I0
sba(iIngredients
Ingredient
p3670
(dp3671
g12
g880
sg19
I00
sg20
g21
sg22
I00
sg23
g881
sg25
g882
sg27
I1
sg28
I00
sg29
g21
sg31
I0
sba(iIngredients
Ingredient
p3672
(dp3673
g12
g457
sg19
I00
sg20
g21
sg22
I00
sg23
g458
sg25
g459
sg27
I1
sg28
I01
sg29
g21
sg31
I0
sbag71
ag38
ag49
a(iIngredients
Ingredient
p3674
(dp3675
g12
S'Pasta Fusilli'
p3676
sg19
I00
sg20
g21
sg22
I00
sg23
S'Pasta'
p3677
sg25
g64
sg27
I1
sg28
I00
sg29
g21
sg31
I0
sbag60
a(iIngredients
Ingredient
p3678
(dp3679
g12
g182
sg19
I00
sg20
g21
sg22
I00
sg23
g183
sg25
g64
sg27
I1
sg28
I00
sg29
g21
sg31
I0
sbag66
ag16
ag43
ag113
ag120
a(iIngredients
Ingredient
p3680
(dp3681
g12
S'Strawberries'
p3682
sg19
I01
sg20
g21
sg22
I00
sg23
S'Produce:Front'
p3683
sg25
g145
sg27
I1
sg28
I00
sg29
g21
sg31
I0
sba(iIngredients
Ingredient
p3684
(dp3685
g12
g260
sg19
I01
sg20
g261
sg22
I01
sg23
g262
sg25
g145
sg27
I1
sg28
I00
sg29
g21
sg31
I0
sba(iIngredients
Ingredient
p3686
(dp3687
g12
g143
sg19
I00
sg20
g21
sg22
I00
sg23
g144
sg25
g145
sg27
I1
sg28
I00
sg29
g21
sg31
I0
sba(iIngredients
Ingredient
p3688
(dp3689
g12
g327
sg19
I00
sg20
g21
sg22
I00
sg23
g328
sg25
g329
sg27
I1
sg28
I01
sg29
g21
sg31
I0
sba(iIngredients
Ingredient
p3690
(dp3691
g12
g177
sg19
I01
sg20
g21
sg22
I00
sg23
g178
sg25
g145
sg27
I1
sg28
I00
sg29
g21
sg31
I0
sba(iIngredients
Ingredient
p3692
(dp3693
g12
g169
sg19
I00
sg20
g21
sg22
I00
sg23
g170
sg25
g145
sg27
I1
sg28
I01
sg29
g21
sg31
I0
sba(iIngredients
Ingredient
p3694
(dp3695
g12
g160
sg19
I00
sg20
g161
sg22
I00
sg23
g162
sg25
g145
sg27
I1
sg28
I00
sg29
g21
sg31
I0
sba(iIngredients
Ingredient
p3696
(dp3697
g12
g187
sg19
I00
sg20
g21
sg22
I00
sg23
g188
sg25
g145
sg27
I1
sg28
I01
sg29
g21
sg31
I0
sba(iIngredients
Ingredient
p3698
(dp3699
g12
g224
sg19
I00
sg20
g21
sg22
I00
sg23
g225
sg25
g226
sg27
I1
sg28
I00
sg29
g21
sg31
I0
sba(iIngredients
Ingredient
p3700
(dp3701
g12
g218
sg19
I00
sg20
g21
sg22
I00
sg23
g219
sg25
g220
sg27
I1
sg28
I00
sg29
g21
sg31
I0
sba(iIngredients
Ingredient
p3702
(dp3703
g12
g210
sg19
I00
sg20
g21
sg22
I00
sg23
g211
sg25
g145
sg27
I1
sg28
I01
sg29
g21
sg31
I0
sba(iIngredients
Ingredient
p3704
(dp3705
g12
g233
sg19
I00
sg20
g21
sg22
I00
sg23
g234
sg25
g145
sg27
I1
sg28
I01
sg29
g21
sg31
I0
sba(iIngredients
Ingredient
p3706
(dp3707
g12
S'Pomegranate Cranberry Juice'
p3708
sg19
I00
sg20
g21
sg22
I00
sg23
S'Juice'
p3709
sg25
g145
sg27
I1
sg28
I00
sg29
g21
sg31
I0
sba(iIngredients
Ingredient
p3710
(dp3711
g12
g520
sg19
I00
sg20
g21
sg22
I00
sg23
g521
sg25
g522
sg27
I1
sg28
I00
sg29
g21
sg31
I0
sba(iIngredients
Ingredient
p3712
(dp3713
g12
g272
sg19
I00
sg20
g21
sg22
I00
sg23
g273
sg25
g274
sg27
I1
sg28
I00
sg29
g21
sg31
I0
sba(iIngredients
Ingredient
p3714
(dp3715
g12
g284
sg19
I00
sg20
g21
sg22
I00
sg23
g285
sg25
g286
sg27
I1
sg28
I00
sg29
g21
sg31
I0
sba(iIngredients
Ingredient
p3716
(dp3717
g12
g290
sg19
I00
sg20
g21
sg22
I00
sg23
g291
sg25
g292
sg27
I1
sg28
I00
sg29
g21
sg31
I0
sba(iIngredients
Ingredient
p3718
(dp3719
g12
g296
sg19
I00
sg20
g21
sg22
I00
sg23
g297
sg25
g298
sg27
I1
sg28
I00
sg29
g21
sg31
I0
sba(iIngredients
Ingredient
p3720
(dp3721
g12
g278
sg19
I00
sg20
g21
sg22
I00
sg23
g279
sg25
g280
sg27
I1
sg28
I00
sg29
g21
sg31
I0
sba(iIngredients
Ingredient
p3722
(dp3723
g12
g333
sg19
I00
sg20
g21
sg22
I00
sg23
g334
sg25
g335
sg27
I1
sg28
I00
sg29
g21
sg31
I0
sba(iIngredients
Ingredient
p3724
(dp3725
g12
g354
sg19
I00
sg20
g21
sg22
I00
sg23
g355
sg25
g356
sg27
I1
sg28
I00
sg29
g21
sg31
I0
sba(iIngredients
Ingredient
p3726
(dp3727
g12
g348
sg19
I00
sg20
g21
sg22
I00
sg23
g349
sg25
g350
sg27
I1
sg28
I01
sg29
g21
sg31
I0
sba(iIngredients
Ingredient
p3728
(dp3729
g12
S'Green Pepper'
p3730
sg19
I00
sg20
g21
sg22
I00
sg23
S'Produce:LeftSide'
p3731
sg25
S'sufw'
p3732
sg27
I1
sg28
I00
sg29
g21
sg31
I0
sba(iIngredients
Ingredient
p3733
(dp3734
g12
g388
sg19
I00
sg20
g21
sg22
I00
sg23
g389
sg25
g390
sg27
I1
sg28
I00
sg29
g21
sg31
I0
sba(iIngredients
Ingredient
p3735
(dp3736
g12
g397
sg19
I00
sg20
g21
sg22
I00
sg23
g398
sg25
g399
sg27
I1
sg28
I01
sg29
g21
sg31
I0
sba(iIngredients
Ingredient
p3737
(dp3738
g12
g409
sg19
I00
sg20
g21
sg22
I00
sg23
g410
sg25
g411
sg27
I1
sg28
I01
sg29
g21
sg31
I0
sba(iIngredients
Ingredient
p3739
(dp3740
g12
g448
sg19
I00
sg20
g21
sg22
I00
sg23
g449
sg25
g450
sg27
I1
sg28
I00
sg29
g21
sg31
I0
sba(iIngredients
Ingredient
p3741
(dp3742
g12
g472
sg19
I01
sg20
g21
sg22
I00
sg23
g473
sg25
g474
sg27
I1
sg28
I00
sg29
g21
sg31
I0
sba(iIngredients
Ingredient
p3743
(dp3744
g12
g439
sg19
I00
sg20
g21
sg22
I00
sg23
g440
sg25
g441
sg27
I1
sg28
I00
sg29
g21
sg31
I0
sba(iIngredients
Ingredient
p3745
(dp3746
g12
g433
sg19
I00
sg20
g21
sg22
I00
sg23
g434
sg25
g435
sg27
I1
sg28
I00
sg29
g21
sg31
I0
sba(iIngredients
Ingredient
p3747
(dp3748
g12
g376
sg19
I00
sg20
g21
sg22
I00
sg23
g377
sg25
g378
sg27
I1
sg28
I00
sg29
g21
sg31
I0
sba(iIngredients
Ingredient
p3749
(dp3750
g12
g590
sg19
I00
sg20
g21
sg22
I00
sg23
g591
sg25
g592
sg27
I1
sg28
I00
sg29
g21
sg31
I0
sba(iIngredients
Ingredient
p3751
(dp3752
g12
g596
sg19
I00
sg20
g21
sg22
I00
sg23
g597
sg25
g598
sg27
I1
sg28
I00
sg29
g21
sg31
I0
sba(iIngredients
Ingredient
p3753
(dp3754
g12
g602
sg19
I00
sg20
g21
sg22
I00
sg23
g603
sg25
g604
sg27
I1
sg28
I00
sg29
g21
sg31
I0
sba(iIngredients
Ingredient
p3755
(dp3756
g12
g647
sg19
I00
sg20
g21
sg22
I00
sg23
g648
sg25
g649
sg27
I1
sg28
I00
sg29
g21
sg31
I0
sba(iIngredients
Ingredient
p3757
(dp3758
g12
g266
sg19
I00
sg20
g21
sg22
I00
sg23
g267
sg25
g268
sg27
I1
sg28
I00
sg29
g21
sg31
I0
sba(iIngredients
Ingredient
p3759
(dp3760
g12
g783
sg19
I00
sg20
g21
sg22
I00
sg23
g784
sg25
g785
sg27
I1
sg28
I00
sg29
g21
sg31
I0
sba(iIngredients
Ingredient
p3761
(dp3762
g12
g526
sg19
I00
sg20
g21
sg22
I00
sg23
g527
sg25
g528
sg27
I1
sg28
I00
sg29
g21
sg31
I0
sba(iIngredients
Ingredient
p3763
(dp3764
g12
g668
sg19
I00
sg20
g21
sg22
I00
sg23
g669
sg25
g670
sg27
I1
sg28
I01
sg29
g21
sg31
I0
sba(iIngredients
Ingredient
p3765
(dp3766
g12
g738
sg19
I00
sg20
g21
sg22
I00
sg23
g739
sg25
g740
sg27
I1
sg28
I00
sg29
g21
sg31
I0
sba(iIngredients
Ingredient
p3767
(dp3768
g12
g674
sg19
I00
sg20
g21
sg22
I00
sg23
g675
sg25
g676
sg27
I1
sg28
I00
sg29
g21
sg31
I0
sba(iIngredients
Ingredient
p3769
(dp3770
g12
g765
sg19
I00
sg20
g21
sg22
I00
sg23
g766
sg25
g767
sg27
I1
sg28
I00
sg29
g21
sg31
I0
sba(iIngredients
Ingredient
p3771
(dp3772
g12
g538
sg19
I00
sg20
g21
sg22
I00
sg23
g539
sg25
g540
sg27
I1
sg28
I01
sg29
g21
sg31
I0
sba(iIngredients
Ingredient
p3773
(dp3774
g12
g680
sg19
I00
sg20
g21
sg22
I00
sg23
g681
sg25
g682
sg27
I1
sg28
I00
sg29
g21
sg31
I0
sba(iIngredients
Ingredient
p3775
(dp3776
g12
g584
sg19
I00
sg20
g21
sg22
I00
sg23
g585
sg25
g586
sg27
I1
sg28
I00
sg29
g21
sg31
I0
sba(iIngredients
Ingredient
p3777
(dp3778
g12
g563
sg19
I00
sg20
g21
sg22
I00
sg23
g564
sg25
g565
sg27
I1
sg28
I00
sg29
g21
sg31
I0
sba(iIngredients
Ingredient
p3779
(dp3780
g12
g569
sg19
I00
sg20
g21
sg22
I00
sg23
g570
sg25
g571
sg27
I1
sg28
I00
sg29
g21
sg31
I0
sba(iIngredients
Ingredient
p3781
(dp3782
g12
g511
sg19
I00
sg20
g21
sg22
I00
sg23
g512
sg25
g513
sg27
I1
sg28
I00
sg29
g21
sg31
I0
sba(iIngredients
Ingredient
p3783
(dp3784
g12
g686
sg19
I00
sg20
g21
sg22
I00
sg23
g687
sg25
g688
sg27
I1
sg28
I00
sg29
g21
sg31
I0
sba(iIngredients
Ingredient
p3785
(dp3786
g12
g692
sg19
I00
sg20
g21
sg22
I00
sg23
g693
sg25
g694
sg27
I1
sg28
I00
sg29
g21
sg31
I0
sba(iIngredients
Ingredient
p3787
(dp3788
g12
g614
sg19
I00
sg20
g21
sg22
I00
sg23
g615
sg25
g616
sg27
I1
sg28
I01
sg29
g21
sg31
I0
sba(iIngredients
Ingredient
p3789
(dp3790
g12
g623
sg19
I00
sg20
g21
sg22
I00
sg23
g624
sg25
g625
sg27
I1
sg28
I01
sg29
g21
sg31
I0
sba(iIngredients
Ingredient
p3791
(dp3792
g12
g608
sg19
I00
sg20
g21
sg22
I00
sg23
g609
sg25
g610
sg27
I1
sg28
I01
sg29
g21
sg31
I0
sba(iIngredients
Ingredient
p3793
(dp3794
g12
g532
sg19
I00
sg20
g21
sg22
I00
sg23
g533
sg25
g534
sg27
I1
sg28
I01
sg29
g21
sg31
I0
sba(iIngredients
Ingredient
p3795
(dp3796
g12
g575
sg19
I00
sg20
g21
sg22
I00
sg23
g576
sg25
g577
sg27
I1
sg28
I00
sg29
g21
sg31
I0
sba(iIngredients
Ingredient
p3797
(dp3798
g12
g801
sg19
I00
sg20
g802
sg22
I00
sg23
g803
sg25
g804
sg27
I1
sg28
I01
sg29
g21
sg31
I0
sba(iIngredients
Ingredient
p3799
(dp3800
g12
g850
sg19
I00
sg20
g21
sg22
I00
sg23
g851
sg25
g852
sg27
I1
sg28
I00
sg29
g21
sg31
I0
sba(iIngredients
Ingredient
p3801
(dp3802
g12
g871
sg19
I00
sg20
g21
sg22
I00
sg23
g872
sg25
g873
sg27
I1
sg28
I01
sg29
g21
sg31
I0
sba(iIngredients
Ingredient
p3803
(dp3804
g12
g1153
sg19
I00
sg20
g21
sg22
I00
sg23
g1154
sg25
g1155
sg27
I1
sg28
I00
sg29
g21
sg31
I0
sba(iIngredients
Ingredient
p3805
(dp3806
g12
g844
sg19
I00
sg20
g21
sg22
I00
sg23
g845
sg25
g846
sg27
I1
sg28
I01
sg29
g21
sg31
I0
sba(iIngredients
Ingredient
p3807
(dp3808
g12
g862
sg19
I00
sg20
g21
sg22
I00
sg23
g863
sg25
g864
sg27
I1
sg28
I00
sg29
g21
sg31
I0
sba(iIngredients
Ingredient
p3809
(dp3810
g12
g1611
sg19
I00
sg20
g21
sg22
I00
sg23
g1612
sg25
g1613
sg27
I1
sg28
I00
sg29
g21
sg31
I0
sba(iIngredients
Ingredient
p3811
(dp3812
g12
g892
sg19
I00
sg20
g21
sg22
I00
sg23
g893
sg25
g894
sg27
I1
sg28
I01
sg29
g21
sg31
I0
sba(iIngredients
Ingredient
p3813
(dp3814
g12
g856
sg19
I00
sg20
g21
sg22
I00
sg23
g857
sg25
g858
sg27
I1
sg28
I00
sg29
g21
sg31
I0
sba(iIngredients
Ingredient
p3815
(dp3816
g12
g1491
sg19
I00
sg20
g21
sg22
I00
sg23
g1492
sg25
g1493
sg27
I1
sg28
I00
sg29
g21
sg31
I0
sba(iIngredients
Ingredient
p3817
(dp3818
g12
g3199
sg19
I00
sg20
g21
sg22
I00
sg23
g3200
sg25
g3201
sg27
I1
sg28
I00
sg29
g21
sg31
I0
sba(iIngredients
Ingredient
p3819
(dp3820
g12
g3407
sg19
I00
sg20
g21
sg22
I00
sg23
g3408
sg25
g3409
sg27
I1
sg28
I00
sg29
g21
sg31
I0
sba(iIngredients
Ingredient
p3821
(dp3822
g12
g1782
sg19
I00
sg20
g21
sg22
I00
sg23
g1783
sg25
g1784
sg27
I1
sg28
I00
sg29
g21
sg31
I0
sba(iIngredients
Ingredient
p3823
(dp3824
g12
g1407
sg19
I00
sg20
g21
sg22
I00
sg23
g1408
sg25
g1409
sg27
I1
sg28
I00
sg29
g21
sg31
I0
sba(iIngredients
Ingredient
p3825
(dp3826
g12
g1539
sg19
I00
sg20
g21
sg22
I00
sg23
g1540
sg25
g1541
sg27
I1
sg28
I00
sg29
g21
sg31
I0
sba(iIngredients
Ingredient
p3827
(dp3828
g12
g2218
sg19
I00
sg20
g21
sg22
I00
sg23
g2219
sg25
g2220
sg27
I1
sg28
I00
sg29
g21
sg31
I0
sba(iIngredients
Ingredient
p3829
(dp3830
g12
g1288
sg19
I00
sg20
g21
sg22
I00
sg23
g1289
sg25
g1290
sg27
I1
sg28
I00
sg29
g21
sg31
I0
sba(iIngredients
Ingredient
p3831
(dp3832
g12
g2457
sg19
I01
sg20
g21
sg22
I00
sg23
g2458
sg25
g2459
sg27
I1
sg28
I00
sg29
g21
sg31
I0
sba(iIngredients
Ingredient
p3833
(dp3834
g12
g3238
sg19
I01
sg20
g21
sg22
I00
sg23
g3239
sg25
g3240
sg27
I1
sg28
I00
sg29
g21
sg31
I0
sba(iIngredients
Ingredient
p3835
(dp3836
g12
g2376
sg19
I01
sg20
g21
sg22
I00
sg23
g2377
sg25
g2378
sg27
I1
sg28
I00
sg29
g21
sg31
I0
sba(iIngredients
Ingredient
p3837
(dp3838
g12
g1349
sg19
I00
sg20
g21
sg22
I00
sg23
g1350
sg25
g1351
sg27
I1
sg28
I00
sg29
g21
sg31
I0
sba(iIngredients
Ingredient
p3839
(dp3840
g12
g3298
sg19
I00
sg20
g21
sg22
I00
sg23
g3299
sg25
g3300
sg27
I1
sg28
I00
sg29
g21
sg31
I0
sba(iIngredients
Ingredient
p3841
(dp3842
g12
g2158
sg19
I00
sg20
g21
sg22
I00
sg23
g2159
sg25
g2160
sg27
I1
sg28
I00
sg29
g21
sg31
I0
sba(iIngredients
Ingredient
p3843
(dp3844
g12
g1497
sg19
I00
sg20
g21
sg22
I00
sg23
g1498
sg25
g1499
sg27
I1
sg28
I00
sg29
g21
sg31
I0
sba(iIngredients
Ingredient
p3845
(dp3846
g12
g1986
sg19
I00
sg20
g21
sg22
I00
sg23
g1987
sg25
g1988
sg27
I1
sg28
I00
sg29
g21
sg31
I0
sba(iIngredients
Ingredient
p3847
(dp3848
g12
g1767
sg19
I00
sg20
g21
sg22
I00
sg23
g1768
sg25
g1769
sg27
I1
sg28
I00
sg29
g21
sg31
I0
sba(iIngredients
Ingredient
p3849
(dp3850
g12
g1773
sg19
I00
sg20
g21
sg22
I00
sg23
g1774
sg25
g1775
sg27
I1
sg28
I00
sg29
g21
sg31
I0
sba(iIngredients
Ingredient
p3851
(dp3852
g12
g1485
sg19
I00
sg20
g21
sg22
I00
sg23
g1486
sg25
g1487
sg27
I1
sg28
I00
sg29
g21
sg31
I0
sba(iIngredients
Ingredient
p3853
(dp3854
g12
g3344
sg19
I00
sg20
g21
sg22
I00
sg23
g3345
sg25
g3346
sg27
I1
sg28
I00
sg29
g21
sg31
I0
sba(iIngredients
Ingredient
p3855
(dp3856
g12
g2883
sg19
I00
sg20
g21
sg22
I00
sg23
g2884
sg25
g2885
sg27
I1
sg28
I00
sg29
g21
sg31
I0
sba(iIngredients
Ingredient
p3857
(dp3858
g12
g1201
sg19
I00
sg20
g21
sg22
I00
sg23
g1202
sg25
g1203
sg27
I1
sg28
I00
sg29
g21
sg31
I0
sba(iIngredients
Ingredient
p3859
(dp3860
g12
g1731
sg19
I00
sg20
g21
sg22
I00
sg23
g1732
sg25
g1733
sg27
I1
sg28
I00
sg29
g21
sg31
I0
sba(iIngredients
Ingredient
p3861
(dp3862
g12
g2877
sg19
I00
sg20
g21
sg22
I00
sg23
g2878
sg25
g2879
sg27
I1
sg28
I00
sg29
g21
sg31
I0
sba(iIngredients
Ingredient
p3863
(dp3864
g12
g1905
sg19
I01
sg20
g21
sg22
I00
sg23
g1906
sg25
g1907
sg27
I1
sg28
I00
sg29
g21
sg31
I0
sba(iIngredients
Ingredient
p3865
(dp3866
g12
g1503
sg19
I01
sg20
g21
sg22
I00
sg23
g1504
sg25
g1505
sg27
I1
sg28
I00
sg29
g21
sg31
I0
sba(iIngredients
Ingredient
p3867
(dp3868
g12
g1195
sg19
I00
sg20
g21
sg22
I00
sg23
g1196
sg25
g1197
sg27
I1
sg28
I00
sg29
g21
sg31
I0
sba(iIngredients
Ingredient
p3869
(dp3870
g12
g2345
sg19
I00
sg20
g21
sg22
I00
sg23
g2346
sg25
g2347
sg27
I1
sg28
I00
sg29
g21
sg31
I0
sba(iIngredients
Ingredient
p3871
(dp3872
g12
g3271
sg19
I00
sg20
g21
sg22
I00
sg23
g3272
sg25
g3273
sg27
I1
sg28
I00
sg29
g21
sg31
I0
sba(iIngredients
Ingredient
p3873
(dp3874
g12
g1719
sg19
I00
sg20
g21
sg22
I00
sg23
g1720
sg25
g1721
sg27
I1
sg28
I00
sg29
g21
sg31
I0
sba(iIngredients
Ingredient
p3875
(dp3876
g12
g2167
sg19
I00
sg20
g21
sg22
I00
sg23
g2168
sg25
g2169
sg27
I1
sg28
I00
sg29
g21
sg31
I0
sba(iIngredients
Ingredient
p3877
(dp3878
g12
g2037
sg19
I00
sg20
g21
sg22
I00
sg23
g2038
sg25
g2039
sg27
I1
sg28
I00
sg29
g21
sg31
I0
sba(iIngredients
Ingredient
p3879
(dp3880
g12
g953
sg19
I00
sg20
g21
sg22
I00
sg23
g954
sg25
g955
sg27
I1
sg28
I00
sg29
g21
sg31
I0
sba(iIngredients
Ingredient
p3881
(dp3882
g12
g1255
sg19
I00
sg20
g21
sg22
I00
sg23
g1256
sg25
g1257
sg27
I1
sg28
I00
sg29
g21
sg31
I0
sba(iIngredients
Ingredient
p3883
(dp3884
g12
g970
sg19
I00
sg20
g971
sg22
I01
sg23
g972
sg25
g973
sg27
I1
sg28
I00
sg29
g21
sg31
I0
sba(iIngredients
Ingredient
p3885
(dp3886
g12
g1004
sg19
I00
sg20
g1005
sg22
I01
sg23
g1006
sg25
g1007
sg27
I1
sg28
I00
sg29
g21
sg31
I0
sba(iIngredients
Ingredient
p3887
(dp3888
g12
g1394
sg19
I00
sg20
g1395
sg22
I01
sg23
g1396
sg25
g1397
sg27
I1
sg28
I00
sg29
g21
sg31
I0
sba(iIngredients
Ingredient
p3889
(dp3890
g12
g1098
sg19
I00
sg20
g1099
sg22
I00
sg23
g1100
sg25
g1101
sg27
I1
sg28
I00
sg29
g21
sg31
I0
sba(iIngredients
Ingredient
p3891
(dp3892
g12
g2103
sg19
I00
sg20
g2104
sg22
I00
sg23
g2105
sg25
g2106
sg27
I1
sg28
I00
sg29
g21
sg31
I0
sba(iIngredients
Ingredient
p3893
(dp3894
g12
g2928
sg19
I00
sg20
g2929
sg22
I00
sg23
g2930
sg25
g2931
sg27
I1
sg28
I00
sg29
g21
sg31
I0
sba(iIngredients
Ingredient
p3895
(dp3896
g12
g3476
sg19
I00
sg20
g3477
sg22
I00
sg23
g3478
sg25
g3479
sg27
I1
sg28
I00
sg29
g21
sg31
I0
sba(iIngredients
Ingredient
p3897
(dp3898
g12
g2308
sg19
I00
sg20
g2309
sg22
I00
sg23
g2310
sg25
g2311
sg27
I1
sg28
I00
sg29
g21
sg31
I0
sba(iIngredients
Ingredient
p3899
(dp3900
g12
g1306
sg19
I00
sg20
g1307
sg22
I01
sg23
g1308
sg25
g1309
sg27
I1
sg28
I00
sg29
g21
sg31
I0
sba(iIngredients
Ingredient
p3901
(dp3902
g12
g2630
sg19
I00
sg20
g2631
sg22
I00
sg23
g2632
sg25
g2633
sg27
I1
sg28
I00
sg29
g21
sg31
I0
sba(iIngredients
Ingredient
p3903
(dp3904
g12
g3334
sg19
I00
sg20
g3335
sg22
I00
sg23
g3336
sg25
g3337
sg27
I1
sg28
I00
sg29
g21
sg31
I0
sba(iIngredients
Ingredient
p3905
(dp3906
g12
g2351
sg19
I00
sg20
g2352
sg22
I00
sg23
g2353
sg25
g2354
sg27
I1
sg28
I00
sg29
g21
sg31
I0
sba(iIngredients
Ingredient
p3907
(dp3908
g12
g2511
sg19
I01
sg20
g2512
sg22
I00
sg23
g2513
sg25
g2514
sg27
I1
sg28
I00
sg29
g21
sg31
I0
sba(iIngredients
Ingredient
p3909
(dp3910
g12
g2545
sg19
I01
sg20
g2546
sg22
I00
sg23
g2547
sg25
g2548
sg27
I1
sg28
I00
sg29
g21
sg31
I0
sba(iIngredients
Ingredient
p3911
(dp3912
g12
g1282
sg19
I00
sg20
g21
sg22
I00
sg23
g1283
sg25
g1284
sg27
I1
sg28
I00
sg29
g21
sg31
I0
sba(iIngredients
Ingredient
p3913
(dp3914
g12
g3064
sg19
I00
sg20
g21
sg22
I00
sg23
g3065
sg25
g3066
sg27
I1
sg28
I01
sg29
g21
sg31
I0
sba(iIngredients
Ingredient
p3915
(dp3916
g12
g3362
sg19
I00
sg20
g21
sg22
I00
sg23
g3363
sg25
g3364
sg27
I1
sg28
I01
sg29
g21
sg31
I0
sba(iIngredients
Ingredient
p3917
(dp3918
g12
g1575
sg19
I00
sg20
g21
sg22
I00
sg23
g1576
sg25
g1577
sg27
I1
sg28
I00
sg29
g21
sg31
I0
sba(iIngredients
Ingredient
p3919
(dp3920
g12
g2640
sg19
I00
sg20
g21
sg22
I00
sg23
g2641
sg25
g2642
sg27
I1
sg28
I00
sg29
g21
sg31
I0
sba(iIngredients
Ingredient
p3921
(dp3922
g12
g3425
sg19
I00
sg20
g21
sg22
I00
sg23
g3426
sg25
g3427
sg27
I1
sg28
I00
sg29
g21
sg31
I0
sba(iIngredients
Ingredient
p3923
(dp3924
g12
g1638
sg19
I00
sg20
g21
sg22
I00
sg23
g1639
sg25
g1640
sg27
I1
sg28
I00
sg29
g21
sg31
I0
sba(iIngredients
Ingredient
p3925
(dp3926
g12
g1443
sg19
I00
sg20
g21
sg22
I00
sg23
g1444
sg25
g1445
sg27
I1
sg28
I00
sg29
g21
sg31
I0
sba(iIngredients
Ingredient
p3927
(dp3928
g12
g1313
sg19
I00
sg20
g21
sg22
I00
sg23
g1314
sg25
g1315
sg27
I1
sg28
I00
sg29
g21
sg31
I0
sba(iIngredients
Ingredient
p3929
(dp3930
g12
g3115
sg19
I00
sg20
g21
sg22
I00
sg23
g3116
sg25
g3117
sg27
I1
sg28
I01
sg29
g21
sg31
I0
sba(iIngredients
Ingredient
p3931
(dp3932
g12
g2718
sg19
I00
sg20
g21
sg22
I00
sg23
g2719
sg25
g2720
sg27
I1
sg28
I01
sg29
g21
sg31
I0
sba(iIngredients
Ingredient
p3933
(dp3934
g12
g2784
sg19
I00
sg20
g21
sg22
I00
sg23
g2785
sg25
g2786
sg27
I1
sg28
I01
sg29
g21
sg31
I0
sba(iIngredients
Ingredient
p3935
(dp3936
g12
g1665
sg19
I00
sg20
g21
sg22
I00
sg23
g1666
sg25
g1667
sg27
I1
sg28
I01
sg29
g21
sg31
I0
sba(iIngredients
Ingredient
p3937
(dp3938
g12
g2412
sg19
I00
sg20
g21
sg22
I00
sg23
g2413
sg25
g2414
sg27
I1
sg28
I00
sg29
g21
sg31
I0
sba(iIngredients
Ingredient
p3939
(dp3940
g12
g1761
sg19
I00
sg20
g21
sg22
I00
sg23
g1762
sg25
g1763
sg27
I1
sg28
I00
sg29
g21
sg31
I0
sba(iIngredients
Ingredient
p3941
(dp3942
g12
g2466
sg19
I00
sg20
g21
sg22
I00
sg23
g2467
sg25
g2468
sg27
I1
sg28
I00
sg29
g21
sg31
I0
sba(iIngredients
Ingredient
p3943
(dp3944
g12
g2944
sg19
I00
sg20
g21
sg22
I00
sg23
g2945
sg25
g2946
sg27
I1
sg28
I00
sg29
g21
sg31
I0
sba(iIngredients
Ingredient
p3945
(dp3946
g12
g2950
sg19
I00
sg20
g21
sg22
I00
sg23
g2951
sg25
g2952
sg27
I1
sg28
I00
sg29
g21
sg31
I0
sba(iIngredients
Ingredient
p3947
(dp3948
g12
g2478
sg19
I00
sg20
g21
sg22
I00
sg23
g2479
sg25
g2480
sg27
I1
sg28
I01
sg29
g21
sg31
I0
sba(iIngredients
Ingredient
p3949
(dp3950
g12
g2956
sg19
I00
sg20
g21
sg22
I00
sg23
g2957
sg25
g2958
sg27
I1
sg28
I01
sg29
g21
sg31
I0
sba(iIngredients
Ingredient
p3951
(dp3952
g12
g3070
sg19
I00
sg20
g21
sg22
I00
sg23
g3071
sg25
g3072
sg27
I1
sg28
I01
sg29
g21
sg31
I0
sba(iIngredients
Ingredient
p3953
(dp3954
g12
g3133
sg19
I00
sg20
g21
sg22
I00
sg23
g3134
sg25
g3135
sg27
I1
sg28
I00
sg29
g21
sg31
I0
sba(iIngredients
Ingredient
p3955
(dp3956
g12
g3127
sg19
I00
sg20
g21
sg22
I00
sg23
g3128
sg25
g3129
sg27
I1
sg28
I00
sg29
g21
sg31
I0
sba(iIngredients
Ingredient
p3957
(dp3958
g12
g2898
sg19
I00
sg20
g21
sg22
I00
sg23
g2899
sg25
g2900
sg27
I1
sg28
I00
sg29
g21
sg31
I0
sba(iIngredients
Ingredient
p3959
(dp3960
g12
g2493
sg19
I00
sg20
g21
sg22
I00
sg23
g2494
sg25
g2495
sg27
I1
sg28
I00
sg29
g21
sg31
I0
sba(iIngredients
Ingredient
p3961
(dp3962
g12
g3106
sg19
I00
sg20
g21
sg22
I00
sg23
g3107
sg25
g3108
sg27
I1
sg28
I00
sg29
g21
sg31
I0
sba(iIngredients
Ingredient
p3963
(dp3964
g12
g3043
sg19
I00
sg20
g21
sg22
I00
sg23
g3044
sg25
g3045
sg27
I1
sg28
I00
sg29
g21
sg31
I0
sba(iIngredients
Ingredient
p3965
(dp3966
g12
g2965
sg19
I00
sg20
g21
sg22
I00
sg23
g2966
sg25
g2967
sg27
I1
sg28
I00
sg29
g21
sg31
I0
sba(iIngredients
Ingredient
p3967
(dp3968
g12
g1893
sg19
I00
sg20
g21
sg22
I00
sg23
g1894
sg25
g1895
sg27
I1
sg28
I00
sg29
g21
sg31
I0
sba(iIngredients
Ingredient
p3969
(dp3970
g12
g2609
sg19
I00
sg20
g21
sg22
I00
sg23
g2610
sg25
g2611
sg27
I1
sg28
I00
sg29
g21
sg31
I0
sba(iIngredients
Ingredient
p3971
(dp3972
g12
g1228
sg19
I00
sg20
g21
sg22
I00
sg23
g1229
sg25
g1230
sg27
I1
sg28
I00
sg29
g21
sg31
I0
sba(iIngredients
Ingredient
p3973
(dp3974
g12
g2131
sg19
I00
sg20
g21
sg22
I00
sg23
g2132
sg25
g2133
sg27
I1
sg28
I00
sg29
g21
sg31
I0
sba(iIngredients
Ingredient
p3975
(dp3976
g12
g2137
sg19
I00
sg20
g21
sg22
I00
sg23
g2138
sg25
g2139
sg27
I1
sg28
I00
sg29
g21
sg31
I0
sba(iIngredients
Ingredient
p3977
(dp3978
g12
g241
sg19
I00
sg20
g21
sg22
I00
sg23
g242
sg25
g243
sg27
I1
sg28
I00
sg29
g21
sg31
I0
sba(iIngredients
Ingredient
p3979
(dp3980
g12
g1246
sg19
I00
sg20
g21
sg22
I00
sg23
g1247
sg25
g1248
sg27
I1
sg28
I00
sg29
g21
sg31
I0
sba(iIngredients
Ingredient
p3981
(dp3982
g12
g2212
sg19
I00
sg20
g21
sg22
I00
sg23
g2213
sg25
g2214
sg27
I1
sg28
I00
sg29
g21
sg31
I0
sba(iIngredients
Ingredient
p3983
(dp3984
g12
g1842
sg19
I00
sg20
g21
sg22
I00
sg23
g1843
sg25
g1844
sg27
I1
sg28
I00
sg29
g21
sg31
I0
sba(iIngredients
Ingredient
p3985
(dp3986
g12
g2173
sg19
I00
sg20
g21
sg22
I00
sg23
g2174
sg25
g2175
sg27
I1
sg28
I00
sg29
g21
sg31
I0
sba(iIngredients
Ingredient
p3987
(dp3988
g12
g2358
sg19
I00
sg20
g21
sg22
I00
sg23
g2359
sg25
g2360
sg27
I1
sg28
I01
sg29
g21
sg31
I0
sba(iIngredients
Ingredient
p3989
(dp3990
g12
g1749
sg19
I00
sg20
g21
sg22
I00
sg23
g1750
sg25
g1751
sg27
I1
sg28
I01
sg29
g21
sg31
I0
sba(iIngredients
Ingredient
p3991
(dp3992
g12
g932
sg19
I00
sg20
g21
sg22
I00
sg23
g933
sg25
g934
sg27
I1
sg28
I01
sg29
g21
sg31
I0
sba(iIngredients
Ingredient
p3993
(dp3994
g12
g1428
sg19
I00
sg20
g21
sg22
I00
sg23
g1429
sg25
g1430
sg27
I1
sg28
I01
sg29
g21
sg31
I0
sba(iIngredients
Ingredient
p3995
(dp3996
g12
g3121
sg19
I00
sg20
g21
sg22
I00
sg23
g3122
sg25
g3123
sg27
I1
sg28
I01
sg29
g21
sg31
I0
sba(iIngredients
Ingredient
p3997
(dp3998
g12
g1437
sg19
I00
sg20
g21
sg22
I00
sg23
g1438
sg25
g1439
sg27
I1
sg28
I01
sg29
g21
sg31
I0
sba(iIngredients
Ingredient
p3999
(dp4000
g12
g1965
sg19
I00
sg20
g21
sg22
I00
sg23
g1966
sg25
g1967
sg27
I1
sg28
I01
sg29
g21
sg31
I0
sba(iIngredients
Ingredient
p4001
(dp4002
g12
g1273
sg19
I00
sg20
g21
sg22
I00
sg23
g1274
sg25
g1275
sg27
I1
sg28
I01
sg29
g21
sg31
I0
sba(iIngredients
Ingredient
p4003
(dp4004
g12
g3088
sg19
I00
sg20
g21
sg22
I00
sg23
g3089
sg25
g3090
sg27
I1
sg28
I01
sg29
g21
sg31
I0
sba(iIngredients
Ingredient
p4005
(dp4006
g12
g1461
sg19
I00
sg20
g21
sg22
I00
sg23
g1462
sg25
g1463
sg27
I1
sg28
I01
sg29
g21
sg31
I0
sba(iIngredients
Ingredient
p4007
(dp4008
g12
g1328
sg19
I00
sg20
g21
sg22
I00
sg23
g1329
sg25
g1330
sg27
I1
sg28
I01
sg29
g21
sg31
I0
sba(iIngredients
Ingredient
p4009
(dp4010
g12
g2143
sg19
I00
sg20
g21
sg22
I00
sg23
g2144
sg25
g2145
sg27
I1
sg28
I01
sg29
g21
sg31
I0
sba(iIngredients
Ingredient
p4011
(dp4012
g12
g938
sg19
I00
sg20
g21
sg22
I00
sg23
g939
sg25
g940
sg27
I1
sg28
I01
sg29
g21
sg31
I0
sba(iIngredients
Ingredient
p4013
(dp4014
g12
g1056
sg19
I00
sg20
g21
sg22
I00
sg23
g1057
sg25
g1058
sg27
I1
sg28
I01
sg29
g21
sg31
I0
sba(iIngredients
Ingredient
p4015
(dp4016
g12
S'Baking Soda'
p4017
sg19
I00
sg20
g21
sg22
I00
sg23
S'Baking'
p4018
sg25
S'sufw'
p4019
sg27
I1
sg28
I01
sg29
g21
sg31
I0
sba(iIngredients
Ingredient
p4020
(dp4021
g12
g2330
sg19
I00
sg20
g21
sg22
I00
sg23
g2331
sg25
g2332
sg27
I1
sg28
I01
sg29
g21
sg31
I0
sba(iIngredients
Ingredient
p4022
(dp4023
g12
S'Chicken Bouillon'
p4024
sg19
I00
sg20
g21
sg22
I00
sg23
S'Baking'
p4025
sg25
S'sufw'
p4026
sg27
I1
sg28
I01
sg29
g21
sg31
I0
sba(iIngredients
Ingredient
p4027
(dp4028
g12
g2382
sg19
I00
sg20
g21
sg22
I00
sg23
g2383
sg25
g2384
sg27
I1
sg28
I01
sg29
g21
sg31
I0
sba(iIngredients
Ingredient
p4029
(dp4030
g12
g947
sg19
I00
sg20
g21
sg22
I00
sg23
g948
sg25
g949
sg27
I1
sg28
I01
sg29
g21
sg31
I0
sba(iIngredients
Ingredient
p4031
(dp4032
g12
g2119
sg19
I00
sg20
g21
sg22
I00
sg23
g2120
sg25
g2121
sg27
I1
sg28
I01
sg29
g21
sg31
I0
sba(iIngredients
Ingredient
p4033
(dp4034
g12
g3525
sg19
I00
sg20
g21
sg22
I00
sg23
g3526
sg25
g3527
sg27
I1
sg28
I01
sg29
g21
sg31
I0
sba(iIngredients
Ingredient
p4035
(dp4036
g12
g1035
sg19
I00
sg20
g21
sg22
I00
sg23
g1036
sg25
g1037
sg27
I1
sg28
I01
sg29
g21
sg31
I0
sba(iIngredients
Ingredient
p4037
(dp4038
g12
g2487
sg19
I00
sg20
g21
sg22
I00
sg23
g2488
sg25
g2489
sg27
I1
sg28
I01
sg29
g21
sg31
I0
sba(iIngredients
Ingredient
p4039
(dp4040
g12
g2730
sg19
I00
sg20
g21
sg22
I00
sg23
g2731
sg25
g2732
sg27
I1
sg28
I01
sg29
g21
sg31
I0
sba(iIngredients
Ingredient
p4041
(dp4042
g12
g2736
sg19
I00
sg20
g21
sg22
I00
sg23
g2737
sg25
g2738
sg27
I1
sg28
I01
sg29
g21
sg31
I0
sba(iIngredients
Ingredient
p4043
(dp4044
g12
g1376
sg19
I00
sg20
g21
sg22
I00
sg23
g1377
sg25
g1378
sg27
I1
sg28
I01
sg29
g21
sg31
I0
sba(iIngredients
Ingredient
p4045
(dp4046
g12
g1788
sg19
I00
sg20
g21
sg22
I00
sg23
g1789
sg25
g1790
sg27
I1
sg28
I01
sg29
g21
sg31
I0
sba(iIngredients
Ingredient
p4047
(dp4048
g12
g1998
sg19
I00
sg20
g21
sg22
I00
sg23
g1999
sg25
g2000
sg27
I1
sg28
I01
sg29
g21
sg31
I0
sba(iIngredients
Ingredient
p4049
(dp4050
g12
g1626
sg19
I00
sg20
g21
sg22
I00
sg23
g1627
sg25
g1628
sg27
I1
sg28
I01
sg29
g21
sg31
I0
sba(iIngredients
Ingredient
p4051
(dp4052
g12
g989
sg19
I00
sg20
g21
sg22
I00
sg23
g990
sg25
g991
sg27
I1
sg28
I01
sg29
g21
sg31
I0
sba(iIngredients
Ingredient
p4053
(dp4054
g12
g1020
sg19
I00
sg20
g21
sg22
I00
sg23
g1021
sg25
g1022
sg27
I1
sg28
I01
sg29
g21
sg31
I0
sba(iIngredients
Ingredient
p4055
(dp4056
g12
g1029
sg19
I00
sg20
g21
sg22
I00
sg23
g1030
sg25
g1031
sg27
I1
sg28
I01
sg29
g21
sg31
I0
sba(iIngredients
Ingredient
p4057
(dp4058
g12
g1168
sg19
I00
sg20
g21
sg22
I00
sg23
g1169
sg25
g1170
sg27
I1
sg28
I01
sg29
g21
sg31
I0
sba(iIngredients
Ingredient
p4059
(dp4060
g12
g917
sg19
I00
sg20
g21
sg22
I00
sg23
g918
sg25
g919
sg27
I1
sg28
I01
sg29
g21
sg31
I0
sba(iIngredients
Ingredient
p4061
(dp4062
g12
g1343
sg19
I00
sg20
g21
sg22
I00
sg23
g1344
sg25
g1345
sg27
I1
sg28
I01
sg29
g21
sg31
I0
sba(iIngredients
Ingredient
p4063
(dp4064
g12
g1515
sg19
I00
sg20
g21
sg22
I00
sg23
g1516
sg25
g1517
sg27
I1
sg28
I00
sg29
g21
sg31
I0
sba(iIngredients
Ingredient
p4065
(dp4066
g12
g926
sg19
I00
sg20
g21
sg22
I00
sg23
g927
sg25
g928
sg27
I1
sg28
I01
sg29
g21
sg31
I0
sba(iIngredients
Ingredient
p4067
(dp4068
g12
g1074
sg19
I00
sg20
g21
sg22
I00
sg23
g1075
sg25
g1076
sg27
I1
sg28
I00
sg29
g21
sg31
I0
sba(iIngredients
Ingredient
p4069
(dp4070
g12
g2203
sg19
I00
sg20
g21
sg22
I00
sg23
g2204
sg25
g2205
sg27
I1
sg28
I00
sg29
g21
sg31
I0
sba(iIngredients
Ingredient
p4071
(dp4072
g12
S'Tomato0'
p4073
sg19
I00
sg20
g21
sg22
I00
sg23
S'WholeNuts'
p4074
sg25
S'sufw'
p4075
sg27
I1
sg28
I00
sg29
g21
sg31
I0
sba(iIngredients
Ingredient
p4076
(dp4077
g12
S'Tomato Paste'
p4078
sg19
I00
sg20
g21
sg22
I00
sg23
S'Tomato'
p4079
sg25
S'sufw'
p4080
sg27
I1
sg28
I00
sg29
g21
sg31
I0
sba(iIngredients
Ingredient
p4081
(dp4082
g12
g3582
sg19
I00
sg20
g21
sg22
I00
sg23
g3583
sg25
g3584
sg27
I1
sg28
I01
sg29
g21
sg31
I0
sba(iIngredients
Ingredient
p4083
(dp4084
g12
g3588
sg19
I00
sg20
g21
sg22
I00
sg23
g3589
sg25
g3590
sg27
I1
sg28
I01
sg29
g21
sg31
I0
sba(iIngredients
Ingredient
p4085
(dp4086
g12
g3603
sg19
I00
sg20
g21
sg22
I00
sg23
g3604
sg25
g3605
sg27
I1
sg28
I01
sg29
g21
sg31
I0
sba(iIngredients
Ingredient
p4087
(dp4088
g12
g3576
sg19
I00
sg20
g21
sg22
I00
sg23
g3577
sg25
g3578
sg27
I1
sg28
I01
sg29
g21
sg31
I0
sba(iIngredients
Ingredient
p4089
(dp4090
g12
g3594
sg19
I00
sg20
g21
sg22
I00
sg23
g3595
sg25
g3596
sg27
I1
sg28
I01
sg29
g21
sg31
I0
sbasS'quick_meals'
p4091
I00
sS'chefs'
p4092
(lp4093
S'Emily'
p4094
aS'Jason'
p4095
asS'num_days'
p4096
I7
sg106
(iCommon
History
p4097
(dp4098
S'entries'
p4099
(lp4100
(iCommon
HistEntry
p4101
(dp4102
S'date'
p4103
g96
(S'\x07\xe2\x07\x16'
p4104
tp4105
Rp4106
sS'recipes'
p4107
(lp4108
(iRecipe
Recipe
p4109
(dp4110
g7
I7
sg9
I01
sg10
S'Jason'
p4111
sg12
S'Test2'
p4112
sg14
(lp4113
g120
asg76
I01
sg77
(lp4114
sg90
(lp4115
sg95
Nsg100
I1
sg101
I5
sg103
S'American'
p4116
sg20
S'vegetarian'
p4117
sg106
(lp4118
sbasba(iCommon
HistEntry
p4119
(dp4120
g4103
g96
(S'\x07\xe2\x07\x17'
p4121
tp4122
Rp4123
sg4107
(lp4124
g108
ag5
a(iRecipe
Recipe
p4125
(dp4126
g7
S'5'
p4127
sg9
I01
sg10
S'Jason'
p4128
sg12
S'Test'
p4129
sg14
(lp4130
g66
ag71
asg76
I01
sg77
(lp4131
g87
asg90
(lp4132
S'Make pasta'
p4133
aS'Put cheese on it'
p4134
asg95
g99
sg100
I2
sg101
S'10'
p4135
sg103
S'Italian'
p4136
sg20
S'vegetarian'
p4137
sg106
(lp4138
sbasba(iCommon
HistEntry
p4139
(dp4140
g4103
g96
(S'\x07\xe2\x07\x17'
p4141
tp4142
Rp4143
sg4107
(lp4144
g108
ag5
ag4125
asbasbsb.